
AVRASM ver. 2.1.9  main.asm Wed Jun 27 17:01:47 2007

main.asm(990): Including file 'main.vec'
main.asm(991): Including file 'main.inc'
main.inc(2): warning: Register r4 already defined by the .DEF directive
main.asm(991): 'main.inc' included form here
main.inc(3): warning: Register r6 already defined by the .DEF directive
main.asm(991): 'main.inc' included form here
main.inc(12): warning: Register r8 already defined by the .DEF directive
main.asm(991): 'main.inc' included form here
main.inc(13): warning: Register r9 already defined by the .DEF directive
main.asm(991): 'main.inc' included form here
main.inc(14): warning: Register r11 already defined by the .DEF directive
main.asm(991): 'main.inc' included form here
main.inc(32): warning: Register r13 already defined by the .DEF directive
main.asm(991): 'main.inc' included form here
main.inc(33): warning: Register r14 already defined by the .DEF directive
main.asm(991): 'main.inc' included form here
                 
                 
                 ;CodeVisionAVR C Compiler V1.25.2 Standard
                 ;(C) Copyright 1998-2006 Pavel Haiduc, HP InfoTech s.r.l.
                 ;http://www.hpinfotech.com
                 
                 ;Chip type              : ATmega8515
                 ;Program type           : Application
                 ;Clock frequency        : 16.000000 MHz
                 ;Memory model           : Small
                 ;Optimize for           : Speed
                 ;(s)printf features     : int, width
                 ;(s)scanf features      : int, width
                 ;External SRAM size     : 0
                 ;Data Stack size        : 100 byte(s)
                 ;Heap size              : 20 byte(s)
                 ;Promote char to int    : No
                 ;char is unsigned       : Yes
                 ;8 bit enums            : Yes
                 ;Word align FLASH struct: No
                 ;Enhanced core instructions    : On
                 ;Automatic register allocation : On
                 
                 	#pragma AVRPART ADMIN PART_NAME ATmega8515
                 	#pragma AVRPART MEMORY PROG_FLASH 8192
                 	#pragma AVRPART MEMORY EEPROM 512
                 	#pragma AVRPART MEMORY INT_SRAM SIZE 512
                 	#pragma AVRPART MEMORY INT_SRAM START_ADDR 0x60
                 
                 	.EQU UDRE=0x5
                 	.EQU RXC=0x7
                 	.EQU USR=0xB
                 	.EQU UDR=0xC
                 	.EQU SPSR=0xE
                 	.EQU SPDR=0xF
                 	.EQU EERE=0x0
                 	.EQU EEWE=0x1
                 	.EQU EEMWE=0x2
                 	.EQU EECR=0x1C
                 	.EQU EEDR=0x1D
                 	.EQU EEARL=0x1E
                 	.EQU EEARH=0x1F
                 	.EQU WDTCR=0x21
                 	.EQU MCUCSR=0x34
                 	.EQU MCUCR=0x35
                 	.EQU EMCUCR=0x36
                 	.EQU GICR=0x3B
                 	.EQU SPL=0x3D
                 	.EQU SPH=0x3E
                 	.EQU SREG=0x3F
                 
                 	.DEF R0X0=R0
                 	.DEF R0X1=R1
                 	.DEF R0X2=R2
                 	.DEF R0X3=R3
                 	.DEF R0X4=R4
                 	.DEF R0X5=R5
                 	.DEF R0X6=R6
                 	.DEF R0X7=R7
                 	.DEF R0X8=R8
                 	.DEF R0X9=R9
                 	.DEF R0XA=R10
                 	.DEF R0XB=R11
                 	.DEF R0XC=R12
                 	.DEF R0XD=R13
                 	.DEF R0XE=R14
                 	.DEF R0XF=R15
                 	.DEF R0X10=R16
                 	.DEF R0X11=R17
                 	.DEF R0X12=R18
                 	.DEF R0X13=R19
                 	.DEF R0X14=R20
                 	.DEF R0X15=R21
                 	.DEF R0X16=R22
                 	.DEF R0X17=R23
                 	.DEF R0X18=R24
                 	.DEF R0X19=R25
                 	.DEF R0X1A=R26
                 	.DEF R0X1B=R27
                 	.DEF R0X1C=R28
                 	.DEF R0X1D=R29
                 	.DEF R0X1E=R30
                 	.DEF R0X1F=R31
                 
                 	.EQU __se_bit=0x20
                 
                 	.MACRO __CPD1N
                 	CPI  R30,LOW(@0)
                 	LDI  R26,HIGH(@0)
                 	CPC  R31,R26
                 	LDI  R26,BYTE3(@0)
                 	CPC  R22,R26
                 	LDI  R26,BYTE4(@0)
                 	CPC  R23,R26
                 	.ENDM
                 
                 	.MACRO __CPD2N
                 	CPI  R26,LOW(@0)
                 	LDI  R30,HIGH(@0)
                 	CPC  R27,R30
                 	LDI  R30,BYTE3(@0)
                 	CPC  R24,R30
                 	LDI  R30,BYTE4(@0)
                 	CPC  R25,R30
                 	.ENDM
                 
                 	.MACRO __CPWRR
                 	CP   R@0,R@2
                 	CPC  R@1,R@3
                 	.ENDM
                 
                 	.MACRO __CPWRN
                 	CPI  R@0,LOW(@2)
                 	LDI  R30,HIGH(@2)
                 	CPC  R@1,R30
                 	.ENDM
                 
                 	.MACRO __ADDB1MN
                 	SUBI R30,LOW(-@0-(@1))
                 	.ENDM
                 	.MACRO __ADDB2MN
                 	SUBI R26,LOW(-@0-(@1))
                 	.ENDM
                 	.MACRO __ADDW1MN
                 	SUBI R30,LOW(-@0-(@1))
                 	SBCI R31,HIGH(-@0-(@1))
                 	.ENDM
                 	.MACRO __ADDW2MN
                 	SUBI R26,LOW(-@0-(@1))
                 	SBCI R27,HIGH(-@0-(@1))
                 	.ENDM
                 	.MACRO __ADDW1FN
                 	SUBI R30,LOW(-2*@0-(@1))
                 	SBCI R31,HIGH(-2*@0-(@1))
                 	.ENDM
                 	.MACRO __ADDD1FN
                 	SUBI R30,LOW(-2*@0-(@1))
                 	SBCI R31,HIGH(-2*@0-(@1))
                 	SBCI R22,BYTE3(-2*@0-(@1))
                 	.ENDM
                 	.MACRO __ADDD1N
                 	SUBI R30,LOW(-@0)
                 	SBCI R31,HIGH(-@0)
                 	SBCI R22,BYTE3(-@0)
                 	SBCI R23,BYTE4(-@0)
                 	.ENDM
                 
                 	.MACRO __ADDD2N
                 	SUBI R26,LOW(-@0)
                 	SBCI R27,HIGH(-@0)
                 	SBCI R24,BYTE3(-@0)
                 	SBCI R25,BYTE4(-@0)
                 	.ENDM
                 
                 	.MACRO __SUBD1N
                 	SUBI R30,LOW(@0)
                 	SBCI R31,HIGH(@0)
                 	SBCI R22,BYTE3(@0)
                 	SBCI R23,BYTE4(@0)
                 	.ENDM
                 
                 	.MACRO __SUBD2N
                 	SUBI R26,LOW(@0)
                 	SBCI R27,HIGH(@0)
                 	SBCI R24,BYTE3(@0)
                 	SBCI R25,BYTE4(@0)
                 	.ENDM
                 
                 	.MACRO __ANDBMNN
                 	LDS  R30,@0+@1
                 	ANDI R30,LOW(@2)
                 	STS  @0+@1,R30
                 	.ENDM
                 
                 	.MACRO __ANDWMNN
                 	LDS  R30,@0+@1
                 	ANDI R30,LOW(@2)
                 	STS  @0+@1,R30
                 	LDS  R30,@0+@1+1
                 	ANDI R30,HIGH(@2)
                 	STS  @0+@1+1,R30
                 	.ENDM
                 
                 	.MACRO __ANDD1N
                 	ANDI R30,LOW(@0)
                 	ANDI R31,HIGH(@0)
                 	ANDI R22,BYTE3(@0)
                 	ANDI R23,BYTE4(@0)
                 	.ENDM
                 
                 	.MACRO __ORBMNN
                 	LDS  R30,@0+@1
                 	ORI  R30,LOW(@2)
                 	STS  @0+@1,R30
                 	.ENDM
                 
                 	.MACRO __ORWMNN
                 	LDS  R30,@0+@1
                 	ORI  R30,LOW(@2)
                 	STS  @0+@1,R30
                 	LDS  R30,@0+@1+1
                 	ORI  R30,HIGH(@2)
                 	STS  @0+@1+1,R30
                 	.ENDM
                 
                 	.MACRO __ORD1N
                 	ORI  R30,LOW(@0)
                 	ORI  R31,HIGH(@0)
                 	ORI  R22,BYTE3(@0)
                 	ORI  R23,BYTE4(@0)
                 	.ENDM
                 
                 	.MACRO __DELAY_USB
                 	LDI  R24,LOW(@0)
                 __DELAY_USB_LOOP:
                 	DEC  R24
                 	BRNE __DELAY_USB_LOOP
                 	.ENDM
                 
                 	.MACRO __DELAY_USW
                 	LDI  R24,LOW(@0)
                 	LDI  R25,HIGH(@0)
                 __DELAY_USW_LOOP:
                 	SBIW R24,1
                 	BRNE __DELAY_USW_LOOP
                 	.ENDM
                 
                 	.MACRO __CLRD1S
                 	LDI  R30,0
                 	STD  Y+@0,R30
                 	STD  Y+@0+1,R30
                 	STD  Y+@0+2,R30
                 	STD  Y+@0+3,R30
                 	.ENDM
                 
                 	.MACRO __GETD1S
                 	LDD  R30,Y+@0
                 	LDD  R31,Y+@0+1
                 	LDD  R22,Y+@0+2
                 	LDD  R23,Y+@0+3
                 	.ENDM
                 
                 	.MACRO __PUTD1S
                 	STD  Y+@0,R30
                 	STD  Y+@0+1,R31
                 	STD  Y+@0+2,R22
                 	STD  Y+@0+3,R23
                 	.ENDM
                 
                 	.MACRO __PUTD2S
                 	STD  Y+@0,R26
                 	STD  Y+@0+1,R27
                 	STD  Y+@0+2,R24
                 	STD  Y+@0+3,R25
                 	.ENDM
                 
                 	.MACRO __POINTB1MN
                 	LDI  R30,LOW(@0+@1)
                 	.ENDM
                 
                 	.MACRO __POINTW1MN
                 	LDI  R30,LOW(@0+@1)
                 	LDI  R31,HIGH(@0+@1)
                 	.ENDM
                 
                 	.MACRO __POINTD1M
                 	LDI  R30,LOW(@0)
                 	LDI  R31,HIGH(@0)
                 	LDI  R22,BYTE3(@0)
                 	.ENDM
                 
                 	.MACRO __POINTW1FN
                 	LDI  R30,LOW(2*@0+@1)
                 	LDI  R31,HIGH(2*@0+@1)
                 	.ENDM
                 
                 	.MACRO __POINTD1FN
                 	LDI  R30,LOW(2*@0+@1)
                 	LDI  R31,HIGH(2*@0+@1)
                 	LDI  R22,BYTE3(2*@0+@1)
                 	.ENDM
                 
                 	.MACRO __POINTB2MN
                 	LDI  R26,LOW(@0+@1)
                 	.ENDM
                 
                 	.MACRO __POINTW2MN
                 	LDI  R26,LOW(@0+@1)
                 	LDI  R27,HIGH(@0+@1)
                 	.ENDM
                 
                 	.MACRO __POINTBRM
                 	LDI  R@0,LOW(@1)
                 	.ENDM
                 
                 	.MACRO __POINTWRM
                 	LDI  R@0,LOW(@2)
                 	LDI  R@1,HIGH(@2)
                 	.ENDM
                 
                 	.MACRO __POINTBRMN
                 	LDI  R@0,LOW(@1+@2)
                 	.ENDM
                 
                 	.MACRO __POINTWRMN
                 	LDI  R@0,LOW(@2+@3)
                 	LDI  R@1,HIGH(@2+@3)
                 	.ENDM
                 
                 	.MACRO __POINTWRFN
                 	LDI  R@0,LOW(@2*2+@3)
                 	LDI  R@1,HIGH(@2*2+@3)
                 	.ENDM
                 
                 	.MACRO __GETD1N
                 	LDI  R30,LOW(@0)
                 	LDI  R31,HIGH(@0)
                 	LDI  R22,BYTE3(@0)
                 	LDI  R23,BYTE4(@0)
                 	.ENDM
                 
                 	.MACRO __GETD2N
                 	LDI  R26,LOW(@0)
                 	LDI  R27,HIGH(@0)
                 	LDI  R24,BYTE3(@0)
                 	LDI  R25,BYTE4(@0)
                 	.ENDM
                 
                 	.MACRO __GETD2S
                 	LDD  R26,Y+@0
                 	LDD  R27,Y+@0+1
                 	LDD  R24,Y+@0+2
                 	LDD  R25,Y+@0+3
                 	.ENDM
                 
                 	.MACRO __GETB1MN
                 	LDS  R30,@0+@1
                 	.ENDM
                 
                 	.MACRO __GETB1HMN
                 	LDS  R31,@0+@1
                 	.ENDM
                 
                 	.MACRO __GETW1MN
                 	LDS  R30,@0+@1
                 	LDS  R31,@0+@1+1
                 	.ENDM
                 
                 	.MACRO __GETD1MN
                 	LDS  R30,@0+@1
                 	LDS  R31,@0+@1+1
                 	LDS  R22,@0+@1+2
                 	LDS  R23,@0+@1+3
                 	.ENDM
                 
                 	.MACRO __GETBRMN
                 	LDS  R@0,@1+@2
                 	.ENDM
                 
                 	.MACRO __GETWRMN
                 	LDS  R@0,@2+@3
                 	LDS  R@1,@2+@3+1
                 	.ENDM
                 
                 	.MACRO __GETWRZ
                 	LDD  R@0,Z+@2
                 	LDD  R@1,Z+@2+1
                 	.ENDM
                 
                 	.MACRO __GETD2Z
                 	LDD  R26,Z+@0
                 	LDD  R27,Z+@0+1
                 	LDD  R24,Z+@0+2
                 	LDD  R25,Z+@0+3
                 	.ENDM
                 
                 	.MACRO __GETB2MN
                 	LDS  R26,@0+@1
                 	.ENDM
                 
                 	.MACRO __GETW2MN
                 	LDS  R26,@0+@1
                 	LDS  R27,@0+@1+1
                 	.ENDM
                 
                 	.MACRO __GETD2MN
                 	LDS  R26,@0+@1
                 	LDS  R27,@0+@1+1
                 	LDS  R24,@0+@1+2
                 	LDS  R25,@0+@1+3
                 	.ENDM
                 
                 	.MACRO __PUTB1MN
                 	STS  @0+@1,R30
                 	.ENDM
                 
                 	.MACRO __PUTW1MN
                 	STS  @0+@1,R30
                 	STS  @0+@1+1,R31
                 	.ENDM
                 
                 	.MACRO __PUTD1MN
                 	STS  @0+@1,R30
                 	STS  @0+@1+1,R31
                 	STS  @0+@1+2,R22
                 	STS  @0+@1+3,R23
                 	.ENDM
                 
                 	.MACRO __PUTBR0MN
                 	STS  @0+@1,R0
                 	.ENDM
                 
                 	.MACRO __PUTDZ2
                 	STD  Z+@0,R26
                 	STD  Z+@0+1,R27
                 	STD  Z+@0+2,R24
                 	STD  Z+@0+3,R25
                 	.ENDM
                 
                 	.MACRO __PUTBMRN
                 	STS  @0+@1,R@2
                 	.ENDM
                 
                 	.MACRO __PUTWMRN
                 	STS  @0+@1,R@2
                 	STS  @0+@1+1,R@3
                 	.ENDM
                 
                 	.MACRO __PUTBZR
                 	STD  Z+@1,R@0
                 	.ENDM
                 
                 	.MACRO __PUTWZR
                 	STD  Z+@2,R@0
                 	STD  Z+@2+1,R@1
                 	.ENDM
                 
                 	.MACRO __GETW1R
                 	MOV  R30,R@0
                 	MOV  R31,R@1
                 	.ENDM
                 
                 	.MACRO __GETW2R
                 	MOV  R26,R@0
                 	MOV  R27,R@1
                 	.ENDM
                 
                 	.MACRO __GETWRN
                 	LDI  R@0,LOW(@2)
                 	LDI  R@1,HIGH(@2)
                 	.ENDM
                 
                 	.MACRO __PUTW1R
                 	MOV  R@0,R30
                 	MOV  R@1,R31
                 	.ENDM
                 
                 	.MACRO __PUTW2R
                 	MOV  R@0,R26
                 	MOV  R@1,R27
                 	.ENDM
                 
                 	.MACRO __ADDWRN
                 	SUBI R@0,LOW(-@2)
                 	SBCI R@1,HIGH(-@2)
                 	.ENDM
                 
                 	.MACRO __ADDWRR
                 	ADD  R@0,R@2
                 	ADC  R@1,R@3
                 	.ENDM
                 
                 	.MACRO __SUBWRN
                 	SUBI R@0,LOW(@2)
                 	SBCI R@1,HIGH(@2)
                 	.ENDM
                 
                 	.MACRO __SUBWRR
                 	SUB  R@0,R@2
                 	SBC  R@1,R@3
                 	.ENDM
                 
                 	.MACRO __ANDWRN
                 	ANDI R@0,LOW(@2)
                 	ANDI R@1,HIGH(@2)
                 	.ENDM
                 
                 	.MACRO __ANDWRR
                 	AND  R@0,R@2
                 	AND  R@1,R@3
                 	.ENDM
                 
                 	.MACRO __ORWRN
                 	ORI  R@0,LOW(@2)
                 	ORI  R@1,HIGH(@2)
                 	.ENDM
                 
                 	.MACRO __ORWRR
                 	OR   R@0,R@2
                 	OR   R@1,R@3
                 	.ENDM
                 
                 	.MACRO __EORWRR
                 	EOR  R@0,R@2
                 	EOR  R@1,R@3
                 	.ENDM
                 
                 	.MACRO __GETWRS
                 	LDD  R@0,Y+@2
                 	LDD  R@1,Y+@2+1
                 	.ENDM
                 
                 	.MACRO __PUTWSR
                 	STD  Y+@2,R@0
                 	STD  Y+@2+1,R@1
                 	.ENDM
                 
                 	.MACRO __MOVEWRR
                 	MOV  R@0,R@2
                 	MOV  R@1,R@3
                 	.ENDM
                 
                 	.MACRO __INWR
                 	IN   R@0,@2
                 	IN   R@1,@2+1
                 	.ENDM
                 
                 	.MACRO __OUTWR
                 	OUT  @2+1,R@1
                 	OUT  @2,R@0
                 	.ENDM
                 
                 	.MACRO __CALL1MN
                 	LDS  R30,@0+@1
                 	LDS  R31,@0+@1+1
                 	ICALL
                 	.ENDM
                 
                 	.MACRO __CALL1FN
                 	LDI  R30,LOW(2*@0+@1)
                 	LDI  R31,HIGH(2*@0+@1)
                 	RCALL __GETW1PF
                 	ICALL
                 	.ENDM
                 
                 	.MACRO __CALL2EN
                 	LDI  R26,LOW(@0+@1)
                 	LDI  R27,HIGH(@0+@1)
                 	RCALL __EEPROMRDW
                 	ICALL
                 	.ENDM
                 
                 	.MACRO __GETW1STACK
                 	IN   R26,SPL
                 	IN   R27,SPH
                 	ADIW R26,@0+1
                 	LD   R30,X+
                 	LD   R31,X
                 	.ENDM
                 
                 	.MACRO __NBST
                 	BST  R@0,@1
                 	IN   R30,SREG
                 	LDI  R31,0x40
                 	EOR  R30,R31
                 	OUT  SREG,R30
                 	.ENDM
                 
                 
                 	.MACRO __PUTB1SN
                 	LDD  R26,Y+@0
                 	LDD  R27,Y+@0+1
                 	SUBI R26,LOW(-@1)
                 	SBCI R27,HIGH(-@1)
                 	ST   X,R30
                 	.ENDM
                 
                 	.MACRO __PUTW1SN
                 	LDD  R26,Y+@0
                 	LDD  R27,Y+@0+1
                 	SUBI R26,LOW(-@1)
                 	SBCI R27,HIGH(-@1)
                 	ST   X+,R30
                 	ST   X,R31
                 	.ENDM
                 
                 	.MACRO __PUTD1SN
                 	LDD  R26,Y+@0
                 	LDD  R27,Y+@0+1
                 	SUBI R26,LOW(-@1)
                 	SBCI R27,HIGH(-@1)
                 	RCALL __PUTDP1
                 	.ENDM
                 
                 	.MACRO __PUTB1SNS
                 	LDD  R26,Y+@0
                 	LDD  R27,Y+@0+1
                 	ADIW R26,@1
                 	ST   X,R30
                 	.ENDM
                 
                 	.MACRO __PUTW1SNS
                 	LDD  R26,Y+@0
                 	LDD  R27,Y+@0+1
                 	ADIW R26,@1
                 	ST   X+,R30
                 	ST   X,R31
                 	.ENDM
                 
                 	.MACRO __PUTD1SNS
                 	LDD  R26,Y+@0
                 	LDD  R27,Y+@0+1
                 	ADIW R26,@1
                 	RCALL __PUTDP1
                 	.ENDM
                 
                 	.MACRO __PUTB1PMN
                 	LDS  R26,@0
                 	LDS  R27,@0+1
                 	SUBI R26,LOW(-@1)
                 	SBCI R27,HIGH(-@1)
                 	ST   X,R30
                 	.ENDM
                 
                 	.MACRO __PUTW1PMN
                 	LDS  R26,@0
                 	LDS  R27,@0+1
                 	SUBI R26,LOW(-@1)
                 	SBCI R27,HIGH(-@1)
                 	ST   X+,R30
                 	ST   X,R31
                 	.ENDM
                 
                 	.MACRO __PUTD1PMN
                 	LDS  R26,@0
                 	LDS  R27,@0+1
                 	SUBI R26,LOW(-@1)
                 	SBCI R27,HIGH(-@1)
                 	RCALL __PUTDP1
                 	.ENDM
                 
                 	.MACRO __PUTB1PMNS
                 	LDS  R26,@0
                 	LDS  R27,@0+1
                 	ADIW R26,@1
                 	ST   X,R30
                 	.ENDM
                 
                 	.MACRO __PUTW1PMNS
                 	LDS  R26,@0
                 	LDS  R27,@0+1
                 	ADIW R26,@1
                 	ST   X+,R30
                 	ST   X,R31
                 	.ENDM
                 
                 	.MACRO __PUTD1PMNS
                 	LDS  R26,@0
                 	LDS  R27,@0+1
                 	ADIW R26,@1
                 	RCALL __PUTDP1
                 	.ENDM
                 
                 	.MACRO __PUTB1RN
                 	MOVW R26,R@0
                 	SUBI R26,LOW(-@1)
                 	SBCI R27,HIGH(-@1)
                 	ST   X,R30
                 	.ENDM
                 
                 	.MACRO __PUTW1RN
                 	MOVW R26,R@0
                 	SUBI R26,LOW(-@1)
                 	SBCI R27,HIGH(-@1)
                 	ST   X+,R30
                 	ST   X,R31
                 	.ENDM
                 
                 	.MACRO __PUTD1RN
                 	MOVW R26,R@0
                 	SUBI R26,LOW(-@1)
                 	SBCI R27,HIGH(-@1)
                 	RCALL __PUTDP1
                 	.ENDM
                 
                 	.MACRO __PUTB1RNS
                 	MOVW R26,R@0
                 	ADIW R26,@1
                 	ST   X,R30
                 	.ENDM
                 
                 	.MACRO __PUTW1RNS
                 	MOVW R26,R@0
                 	ADIW R26,@1
                 	ST   X+,R30
                 	ST   X,R31
                 	.ENDM
                 
                 	.MACRO __PUTD1RNS
                 	MOVW R26,R@0
                 	ADIW R26,@1
                 	RCALL __PUTDP1
                 	.ENDM
                 
                 	.MACRO __PUTB1RON
                 	MOV  R26,R@0
                 	MOV  R27,R@1
                 	SUBI R26,LOW(-@2)
                 	SBCI R27,HIGH(-@2)
                 	ST   X,R30
                 	.ENDM
                 
                 	.MACRO __PUTW1RON
                 	MOV  R26,R@0
                 	MOV  R27,R@1
                 	SUBI R26,LOW(-@2)
                 	SBCI R27,HIGH(-@2)
                 	ST   X+,R30
                 	ST   X,R31
                 	.ENDM
                 
                 	.MACRO __PUTD1RON
                 	MOV  R26,R@0
                 	MOV  R27,R@1
                 	SUBI R26,LOW(-@2)
                 	SBCI R27,HIGH(-@2)
                 	RCALL __PUTDP1
                 	.ENDM
                 
                 	.MACRO __PUTB1RONS
                 	MOV  R26,R@0
                 	MOV  R27,R@1
                 	ADIW R26,@2
                 	ST   X,R30
                 	.ENDM
                 
                 	.MACRO __PUTW1RONS
                 	MOV  R26,R@0
                 	MOV  R27,R@1
                 	ADIW R26,@2
                 	ST   X+,R30
                 	ST   X,R31
                 	.ENDM
                 
                 	.MACRO __PUTD1RONS
                 	MOV  R26,R@0
                 	MOV  R27,R@1
                 	ADIW R26,@2
                 	RCALL __PUTDP1
                 	.ENDM
                 
                 
                 	.MACRO __GETB1SX
                 	MOVW R30,R28
                 	SUBI R30,LOW(-@0)
                 	SBCI R31,HIGH(-@0)
                 	LD   R30,Z
                 	.ENDM
                 
                 	.MACRO __GETB1HSX
                 	MOVW R30,R28
                 	SUBI R30,LOW(-@0)
                 	SBCI R31,HIGH(-@0)
                 	LD   R31,Z
                 	.ENDM
                 
                 	.MACRO __GETW1SX
                 	MOVW R30,R28
                 	SUBI R30,LOW(-@0)
                 	SBCI R31,HIGH(-@0)
                 	LD   R0,Z+
                 	LD   R31,Z
                 	MOV  R30,R0
                 	.ENDM
                 
                 	.MACRO __GETD1SX
                 	MOVW R30,R28
                 	SUBI R30,LOW(-@0)
                 	SBCI R31,HIGH(-@0)
                 	LD   R0,Z+
                 	LD   R1,Z+
                 	LD   R22,Z+
                 	LD   R23,Z
                 	MOVW R30,R0
                 	.ENDM
                 
                 	.MACRO __GETB2SX
                 	MOVW R26,R28
                 	SUBI R26,LOW(-@0)
                 	SBCI R27,HIGH(-@0)
                 	LD   R26,X
                 	.ENDM
                 
                 	.MACRO __GETW2SX
                 	MOVW R26,R28
                 	SUBI R26,LOW(-@0)
                 	SBCI R27,HIGH(-@0)
                 	LD   R0,X+
                 	LD   R27,X
                 	MOV  R26,R0
                 	.ENDM
                 
                 	.MACRO __GETD2SX
                 	MOVW R26,R28
                 	SUBI R26,LOW(-@0)
                 	SBCI R27,HIGH(-@0)
                 	LD   R0,X+
                 	LD   R1,X+
                 	LD   R24,X+
                 	LD   R25,X
                 	MOVW R26,R0
                 	.ENDM
                 
                 	.MACRO __GETBRSX
                 	MOVW R30,R28
                 	SUBI R30,LOW(-@1)
                 	SBCI R31,HIGH(-@1)
                 	LD   R@0,Z
                 	.ENDM
                 
                 	.MACRO __GETWRSX
                 	MOVW R30,R28
                 	SUBI R30,LOW(-@2)
                 	SBCI R31,HIGH(-@2)
                 	LD   R@0,Z+
                 	LD   R@1,Z
                 	.ENDM
                 
                 	.MACRO __LSLW8SX
                 	MOVW R30,R28
                 	SUBI R30,LOW(-@0)
                 	SBCI R31,HIGH(-@0)
                 	LD   R31,Z
                 	CLR  R30
                 	.ENDM
                 
                 	.MACRO __PUTB1SX
                 	MOVW R26,R28
                 	SUBI R26,LOW(-@0)
                 	SBCI R27,HIGH(-@0)
                 	ST   X,R30
                 	.ENDM
                 
                 	.MACRO __PUTW1SX
                 	MOVW R26,R28
                 	SUBI R26,LOW(-@0)
                 	SBCI R27,HIGH(-@0)
                 	ST   X+,R30
                 	ST   X,R31
                 	.ENDM
                 
                 	.MACRO __PUTD1SX
                 	MOVW R26,R28
                 	SUBI R26,LOW(-@0)
                 	SBCI R27,HIGH(-@0)
                 	ST   X+,R30
                 	ST   X+,R31
                 	ST   X+,R22
                 	ST   X,R23
                 	.ENDM
                 
                 	.MACRO __CLRW1SX
                 	MOVW R30,R28
                 	SUBI R30,LOW(-@0)
                 	SBCI R31,HIGH(-@0)
                 	CLR  R0
                 	ST   Z+,R0
                 	ST   Z,R0
                 	.ENDM
                 
                 	.MACRO __CLRD1SX
                 	MOVW R30,R28
                 	SUBI R30,LOW(-@0)
                 	SBCI R31,HIGH(-@0)
                 	CLR  R0
                 	ST   Z+,R0
                 	ST   Z+,R0
                 	ST   Z+,R0
                 	ST   Z,R0
                 	.ENDM
                 
                 	.MACRO __PUTB2SX
                 	MOVW R30,R28
                 	SUBI R30,LOW(-@0)
                 	SBCI R31,HIGH(-@0)
                 	ST   Z,R26
                 	.ENDM
                 
                 	.MACRO __PUTW2SX
                 	MOVW R30,R28
                 	SUBI R30,LOW(-@0)
                 	SBCI R31,HIGH(-@0)
                 	ST   Z+,R26
                 	ST   Z,R27
                 	.ENDM
                 
                 	.MACRO __PUTD2SX
                 	MOVW R30,R28
                 	SUBI R30,LOW(-@0)
                 	SBCI R31,HIGH(-@0)
                 	ST   Z+,R26
                 	ST   Z+,R27
                 	ST   Z+,R24
                 	ST   Z,R25
                 	.ENDM
                 
                 	.MACRO __PUTBSRX
                 	MOVW R30,R28
                 	SUBI R30,LOW(-@0)
                 	SBCI R31,HIGH(-@0)
                 	ST   Z,R@1
                 	.ENDM
                 
                 	.MACRO __PUTWSRX
                 	MOVW R30,R28
                 	SUBI R30,LOW(-@2)
                 	SBCI R31,HIGH(-@2)
                 	ST   Z+,R@0
                 	ST   Z,R@1
                 	.ENDM
                 
                 	.MACRO __PUTB1SNX
                 	MOVW R26,R28
                 	SUBI R26,LOW(-@0)
                 	SBCI R27,HIGH(-@0)
                 	LD   R0,X+
                 	LD   R27,X
                 	MOV  R26,R0
                 	SUBI R26,LOW(-@1)
                 	SBCI R27,HIGH(-@1)
                 	ST   X,R30
                 	.ENDM
                 
                 	.MACRO __PUTW1SNX
                 	MOVW R26,R28
                 	SUBI R26,LOW(-@0)
                 	SBCI R27,HIGH(-@0)
                 	LD   R0,X+
                 	LD   R27,X
                 	MOV  R26,R0
                 	SUBI R26,LOW(-@1)
                 	SBCI R27,HIGH(-@1)
                 	ST   X+,R30
                 	ST   X,R31
                 	.ENDM
                 
                 	.MACRO __PUTD1SNX
                 	MOVW R26,R28
                 	SUBI R26,LOW(-@0)
                 	SBCI R27,HIGH(-@0)
                 	LD   R0,X+
                 	LD   R27,X
                 	MOV  R26,R0
                 	SUBI R26,LOW(-@1)
                 	SBCI R27,HIGH(-@1)
                 	ST   X+,R30
                 	ST   X+,R31
                 	ST   X+,R22
                 	ST   X,R23
                 	.ENDM
                 
                 	.MACRO __MULBRR
                 	MULS R@0,R@1
                 	MOVW R30,R0
                 	.ENDM
                 
                 	.MACRO __MULBRRU
                 	MUL  R@0,R@1
                 	MOVW R30,R0
                 	.ENDM
                 
                 	.MACRO __MULBRR0
                 	MULS R@0,R@1
                 	.ENDM
                 
                 	.MACRO __MULBRRU0
                 	MUL  R@0,R@1
                 	.ENDM
                 
                 	.MACRO __MULBNWRU
                 	LDI  R26,@2
                 	MUL  R26,R@0
                 	MOVW R30,R0
                 	MUL  R26,R@1
                 	ADD  R31,R0
                 	.ENDM
                 
                 	.CSEG
                 	.ORG 0
                 
                 	.INCLUDE "main.vec"
                 
                 ;INTERRUPT VECTORS
000000 c19c      	RJMP __RESET
000001 cffe      	RJMP 0x00
000002 cffd      	RJMP 0x00
000003 cffc      	RJMP 0x00
000004 cffb      	RJMP 0x00
000005 cffa      	RJMP 0x00
000006 cff9      	RJMP 0x00
000007 c1c5      	RJMP _timer0_ovf_isr
000008 cff7      	RJMP 0x00
000009 c858      	RJMP _usart_rx_isr
00000a cff5      	RJMP 0x00
00000b cff4      	RJMP 0x00
00000c cff3      	RJMP 0x00
00000d cff2      	RJMP 0x00
00000e cff1      	RJMP 0x00
00000f cff0      	RJMP 0x00
000010 cfef      	RJMP 0x00
                 
                 	.INCLUDE "main.inc"
                 
                 	.DEF _count_row=R4
                 	.DEF _count_col=R6
                 _szText:
000011 2a2a
000012 4320
000013 6f75
000014 676e      	.DB  0x2A,0x2A,0x20,0x43,0x75,0x6F,0x6E,0x67
000015 7551
000016 7961
000017 3020
000018 3139      	.DB  0x51,0x75,0x61,0x79,0x20,0x30,0x39,0x31
000019 3635
00001a 3135
00001b 3030
00001c 2031      	.DB  0x35,0x36,0x35,0x31,0x30,0x30,0x31,0x20
00001d 2a2a
main.inc(8): warning: .cseg .db misalignment - padding zero byte
main.asm(991): 'main.inc' included form here
00001e 0000      	.DB  0x2A,0x2A,0x0
                 _3:
00001f 9f11
000020 1632
000021 549c
000022 1f50      	.DB  0x11,0x9F,0x32,0x16,0x9C,0x54,0x50,0x1F
000023 1410
000024 effe
000025 ffff
000026 ffff      	.DB  0x10,0x14,0xFE,0xEF,0xFF,0xFF,0xFF,0xFF
                 	.DEF _rx_message=R8
                 	.DEF _rx_wparam=R9
                 	.DEF _rx_lparam=R11
                 _0x2B:
000027 0000      	.DB  0x0,0x0
                 _0x51:
000028 00a0      	.DB  0xA0,0x0
000029 0000      	.DB  0x0,0x0
00002a 0000      	.DB  0x0,0x0
00002b 0000      	.DB  0x0,0x0
00002c 0000      	.DB  0x0,0x0
00002d 0000      	.DB  0x0,0x0
00002e 0000      	.DB  0x0,0x0
                 _0x6E:
00002f 0000      	.DB  LOW(0x00),HIGH(0x00)
000030 0000      	.DB  0x0,0x0
                 _0x72:
000031 0000      	.DB  0x0,0x0
000032 0000      	.DB  0x0,0x0
000033 0000      	.DB  0x0,0x0
                 	.DEF _rx_wr_index=R13
                 	.DEF _rx_counter=R14
                 _tbl10_G4:
000034 2710
000035 03e8
000036 0064
000037 000a      	.DB  0x10,0x27,0xE8,0x3,0x64,0x0,0xA,0x0
000038 0001      	.DB  0x1,0x0
                 _tbl16_G4:
000039 1000
00003a 0100
00003b 0010
00003c 0001      	.DB  0x0,0x10,0x0,0x1,0x10,0x0,0x1,0x0
                 _conv_delay_G6:
00003d 0064
00003e 00c8
00003f 0190
000040 0320      	.DB  0x64,0x0,0xC8,0x0,0x90,0x1,0x20,0x3
                 _bit_mask_G6:
000041 fff8
000042 fffc
000043 fffe
000044 ffff      	.DB  0xF8,0xFF,0xFC,0xFF,0xFE,0xFF,0xFF,0xFF
                 _0:
000045 4f54
000046 4320
000047 5548
000048 2043      	.DB  0x54,0x4F,0x20,0x43,0x48,0x55,0x43,0x20
000049 494b
00004a 484e
00004b 5420
00004c 2045      	.DB  0x4B,0x49,0x4E,0x48,0x20,0x54,0x45,0x20
00004d 2020
00004e 0020
00004f 4144
000050 204e      	.DB  0x20,0x20,0x20,0x0,0x44,0x41,0x4E,0x20
000051 5543
000052 4720
000053 4955
000054 4720      	.DB  0x43,0x55,0x20,0x47,0x55,0x49,0x20,0x47
000055 504f
000056 2020
000057 2020
000058 0020      	.DB  0x4F,0x50,0x20,0x20,0x20,0x20,0x20,0x0
000059 4144
00005a 204e
00005b 5543
00005c 4220      	.DB  0x44,0x41,0x4E,0x20,0x43,0x55,0x20,0x42
00005d 4341
00005e 5420
00005f 4148
000060 474e      	.DB  0x41,0x43,0x20,0x54,0x48,0x41,0x4E,0x47
000061 2020
000062 0020
000063 4144
000064 204e      	.DB  0x20,0x20,0x20,0x0,0x44,0x41,0x4E,0x20
000065 5543
000066 4420
000067 2055
000068 4854      	.DB  0x43,0x55,0x20,0x44,0x55,0x20,0x54,0x48
000069 4f55
00006a 474e
00006b 2020
00006c 0020      	.DB  0x55,0x4F,0x4E,0x47,0x20,0x20,0x20,0x0
00006d 4144
00006e 204e
00006f 5543
000070 5420      	.DB  0x44,0x41,0x4E,0x20,0x43,0x55,0x20,0x54
000071 4f48
000072 474e
000073 5420
000074 5548      	.DB  0x48,0x4F,0x4E,0x47,0x20,0x54,0x48,0x55
000075 4e4f
000076 0047
000077 4d47
000078 3a54      	.DB  0x4F,0x4E,0x47,0x0,0x47,0x4D,0x54,0x3A
000079 2520
00007a 3230
00007b 3a64
00007c 3025      	.DB  0x20,0x25,0x30,0x32,0x64,0x3A,0x25,0x30
00007d 6432
00007e 253a
00007f 3230
000080 2064      	.DB  0x32,0x64,0x3A,0x25,0x30,0x32,0x64,0x20
000081 3025
000082 6432
000083 252d
000084 3230      	.DB  0x25,0x30,0x32,0x64,0x2D,0x25,0x30,0x32
000085 2d64
000086 3025
000087 6432
000088 0a0d      	.DB  0x64,0x2D,0x25,0x30,0x32,0x64,0xD,0xA
000089 2500
00008a 3230
00008b 2d64
00008c 3025      	.DB  0x0,0x25,0x30,0x32,0x64,0x2D,0x25,0x30
00008d 6432
00008e 252d
00008f 6434
000090 3025      	.DB  0x32,0x64,0x2D,0x25,0x34,0x64,0x25,0x30
000091 6432
000092 3025
000093 6432
000094 3025      	.DB  0x32,0x64,0x25,0x30,0x32,0x64,0x25,0x30
000095 6432
000096 3025
000097 6432
000098 3025      	.DB  0x32,0x64,0x25,0x30,0x32,0x64,0x25,0x30
000099 6432
00009a 3025
00009b 6432
00009c 3025      	.DB  0x32,0x64,0x25,0x30,0x32,0x64,0x25,0x30
00009d 6432
00009e 3025
00009f 6432
0000a0 3025      	.DB  0x32,0x64,0x25,0x30,0x32,0x64,0x25,0x30
0000a1 6432
0000a2 3025
0000a3 6432
0000a4 3025      	.DB  0x32,0x64,0x25,0x30,0x32,0x64,0x25,0x30
0000a5 6432
0000a6 3025
0000a7 6432
0000a8 2500      	.DB  0x32,0x64,0x25,0x30,0x32,0x64,0x0,0x25
0000a9 2073
0000aa 0a0d
0000ab 6c00
0000ac 6e69      	.DB  0x73,0x20,0xD,0xA,0x0,0x6C,0x69,0x6E
0000ad 3d65
0000ae 6425
0000af 7220
0000b0 7461      	.DB  0x65,0x3D,0x25,0x64,0x20,0x72,0x61,0x74
0000b1 3d65
0000b2 6425
0000b3 0a0d
0000b4 2500      	.DB  0x65,0x3D,0x25,0x64,0xD,0xA,0x0,0x25
0000b5 3230
0000b6 2058
0000b7 2000
0000b8 2020      	.DB  0x30,0x32,0x58,0x20,0x0,0x20,0x20,0x20
0000b9 2020
0000ba 2020
0000bb 2020
0000bc 2020      	.DB  0x20,0x20,0x20,0x20,0x20,0x20,0x20,0x20
0000bd 2020
0000be 2020
0000bf 2020
0000c0 2020      	.DB  0x20,0x20,0x20,0x20,0x20,0x20,0x20,0x20
0000c1 2020
0000c2 2020
0000c3 2020
0000c4 2020      	.DB  0x20,0x20,0x20,0x20,0x20,0x20,0x20,0x20
0000c5 2020
0000c6 2020
0000c7 2020
0000c8 2020      	.DB  0x20,0x20,0x20,0x20,0x20,0x20,0x20,0x20
0000c9 2020
0000ca 2020
0000cb 2020
0000cc 0d20      	.DB  0x20,0x20,0x20,0x20,0x20,0x20,0x20,0xD
0000cd 000a
0000ce 3d7c
0000cf 3d3d
0000d0 3d3d      	.DB  0xA,0x0,0x7C,0x3D,0x3D,0x3D,0x3D,0x3D
0000d1 3d3d
0000d2 3d3d
0000d3 3d3d
0000d4 3d3d      	.DB  0x3D,0x3D,0x3D,0x3D,0x3D,0x3D,0x3D,0x3D
0000d5 3d3d
0000d6 3d3d
0000d7 3d3d
0000d8 3d3d      	.DB  0x3D,0x3D,0x3D,0x3D,0x3D,0x3D,0x3D,0x3D
0000d9 3d3d
0000da 3d3d
0000db 3d3d
0000dc 3d3d      	.DB  0x3D,0x3D,0x3D,0x3D,0x3D,0x3D,0x3D,0x3D
0000dd 3d3d
0000de 3d3d
0000df 3d3d
0000e0 3d3d      	.DB  0x3D,0x3D,0x3D,0x3D,0x3D,0x3D,0x3D,0x3D
0000e1 3d3d
0000e2 3d3d
0000e3 0d7c
0000e4 000a      	.DB  0x3D,0x3D,0x3D,0x3D,0x7C,0xD,0xA,0x0
0000e5 207c
0000e6 2020
0000e7 2020
0000e8 4420      	.DB  0x7C,0x20,0x20,0x20,0x20,0x20,0x20,0x44
0000e9 6769
0000ea 4c69
0000eb 4445
0000ec 4120      	.DB  0x69,0x67,0x69,0x4C,0x45,0x44,0x20,0x41
0000ed 5256
0000ee 4620
0000ef 7269
0000f0 776d      	.DB  0x56,0x52,0x20,0x46,0x69,0x72,0x6D,0x77
0000f1 7261
0000f2 2065
0000f3 3176
0000f4 302e      	.DB  0x61,0x72,0x65,0x20,0x76,0x31,0x2E,0x30
0000f5 302e
0000f6 2020
0000f7 2020
0000f8 2020      	.DB  0x2E,0x30,0x20,0x20,0x20,0x20,0x20,0x20
0000f9 2020
0000fa 0d7c
0000fb 000a
0000fc 5f7c      	.DB  0x20,0x20,0x7C,0xD,0xA,0x0,0x7C,0x5F
0000fd 5f5f
0000fe 5f5f
0000ff 5f5f
000100 5f5f      	.DB  0x5F,0x5F,0x5F,0x5F,0x5F,0x5F,0x5F,0x5F
000101 5f5f
000102 5f5f
000103 5f5f
000104 5f5f      	.DB  0x5F,0x5F,0x5F,0x5F,0x5F,0x5F,0x5F,0x5F
000105 5f5f
000106 5f5f
000107 5f5f
000108 5f5f      	.DB  0x5F,0x5F,0x5F,0x5F,0x5F,0x5F,0x5F,0x5F
000109 5f5f
00010a 5f5f
00010b 5f5f
00010c 5f5f      	.DB  0x5F,0x5F,0x5F,0x5F,0x5F,0x5F,0x5F,0x5F
00010d 5f5f
00010e 5f5f
00010f 5f5f
000110 5f5f      	.DB  0x5F,0x5F,0x5F,0x5F,0x5F,0x5F,0x5F,0x5F
000111 0d7c
000112 000a
000113 207c
000114 2020      	.DB  0x7C,0xD,0xA,0x0,0x7C,0x20,0x20,0x20
000115 2020
000116 2020
000117 4320
000118 706f      	.DB  0x20,0x20,0x20,0x20,0x20,0x43,0x6F,0x70
000119 7279
00011a 6769
00011b 7468
00011c 6220      	.DB  0x79,0x72,0x69,0x67,0x68,0x74,0x20,0x62
00011d 2079
00011e 7543
00011f 6e6f
000120 5167      	.DB  0x79,0x20,0x43,0x75,0x6F,0x6E,0x67,0x51
000121 6175
000122 2079
000123 2020
000124 2020      	.DB  0x75,0x61,0x79,0x20,0x20,0x20,0x20,0x20
000125 2020
000126 2020
000127 2020
000128 0d7c      	.DB  0x20,0x20,0x20,0x20,0x20,0x20,0x7C,0xD
000129 000a
00012a 207c
00012b 2020
00012c 6320      	.DB  0xA,0x0,0x7C,0x20,0x20,0x20,0x20,0x63
00012d 6f75
00012e 676e
00012f 6933
000130 7568      	.DB  0x75,0x6F,0x6E,0x67,0x33,0x69,0x68,0x75
000131 4074
000132 6179
000133 6f68
000134 2e6f      	.DB  0x74,0x40,0x79,0x61,0x68,0x6F,0x6F,0x2E
000135 6f63
000136 206d
000137 202d
000138 3930      	.DB  0x63,0x6F,0x6D,0x20,0x2D,0x20,0x30,0x39
000139 3531
00013a 3536
00013b 3031
00013c 3130      	.DB  0x31,0x35,0x36,0x35,0x31,0x30,0x30,0x31
00013d 2020
00013e 2020
00013f 0d7c
000140 000a      	.DB  0x20,0x20,0x20,0x20,0x7C,0xD,0xA,0x0
000141 207c
000142 2020
000143 2020
000144 2020      	.DB  0x7C,0x20,0x20,0x20,0x20,0x20,0x20,0x20
000145 7453
000146 7261
000147 6574
000148 2064      	.DB  0x53,0x74,0x61,0x72,0x74,0x65,0x64,0x20
000149 6164
00014a 6574
00014b 203a
00014c 3432      	.DB  0x64,0x61,0x74,0x65,0x3A,0x20,0x32,0x34
00014d 302e
00014e 2e35
00014f 3032
000150 3730      	.DB  0x2E,0x30,0x35,0x2E,0x32,0x30,0x30,0x37
000151 2020
000152 2020
000153 2020
000154 2020      	.DB  0x20,0x20,0x20,0x20,0x20,0x20,0x20,0x20
000155 2020
000156 0d7c
000157 000a
000158 207c      	.DB  0x20,0x20,0x7C,0xD,0xA,0x0,0x7C,0x20
000159 2020
00015a 2020
00015b 2020
00015c 6552      	.DB  0x20,0x20,0x20,0x20,0x20,0x20,0x52,0x65
00015d 656c
00015e 7361
00015f 2065
000160 6164      	.DB  0x6C,0x65,0x61,0x73,0x65,0x20,0x64,0x61
000161 6574
000162 203a
000163 3332
000164 302e      	.DB  0x74,0x65,0x3A,0x20,0x32,0x33,0x2E,0x30
000165 2e36
000166 3032
000167 3730
000168 2020      	.DB  0x36,0x2E,0x32,0x30,0x30,0x37,0x20,0x20
000169 2020
00016a 2020
00016b 2020
00016c 2020      	.DB  0x20,0x20,0x20,0x20,0x20,0x20,0x20,0x20
00016d 0d7c
00016e 000a
00016f 5344
000170 3331      	.DB  0x7C,0xD,0xA,0x0,0x44,0x53,0x31,0x33
000171 3730
000172 4720
000173 544d
000174 203a      	.DB  0x30,0x37,0x20,0x47,0x4D,0x54,0x3A,0x20
000175 3025
000176 6432
000177 253a
000178 3230      	.DB  0x25,0x30,0x32,0x64,0x3A,0x25,0x30,0x32
000179 3a64
00017a 3025
00017b 6432
00017c 2520      	.DB  0x64,0x3A,0x25,0x30,0x32,0x64,0x20,0x25
00017d 3230
00017e 2d64
00017f 3025
000180 6432      	.DB  0x30,0x32,0x64,0x2D,0x25,0x30,0x32,0x64
000181 252d
000182 3230
000183 0d64
000184 000a      	.DB  0x2D,0x25,0x30,0x32,0x64,0xD,0xA,0x0
                 
                 ;HEAP START MARKER INITIALIZATION
                 __HEAP_START_MARKER:
000185 0000
000186 0000      	.DW  0,0
                 
                 __GLOBAL_INI_TBL:
000187 0004      	.DW  0x04
000188 024c      	.DW  0x24C
000189 030a      	.DW  __HEAP_START_MARKER*2
                 
00018a 0014      	.DW  0x14
00018b 00d2      	.DW  _szTitle_G1
00018c 008a      	.DW  _0*2
                 
00018d 0014      	.DW  0x14
00018e 00e6      	.DW  _szTitle_G1+0x14
00018f 009e      	.DW  _0*2+0x14
                 
000190 0014      	.DW  0x14
000191 00fa      	.DW  _szTitle_G1+0x28
000192 00b2      	.DW  _0*2+0x28
                 
000193 0014      	.DW  0x14
000194 010e      	.DW  _szTitle_G1+0x3C
000195 00c6      	.DW  _0*2+0x3C
                 
000196 0014      	.DW  0x14
000197 0122      	.DW  _szTitle_G1+0x50
000198 00da      	.DW  _0*2+0x50
                 
000199 0010      	.DW  0x10
00019a 0136      	.DW  __xtable
00019b 003e      	.DW  _3*2
                 
00019c 0000      	.DW  0
                 _0x118:
                 
                 __RESET:
00019d 94f8      	CLI
00019e 27ee      	CLR  R30
00019f bbec      	OUT  EECR,R30
                 
                 ;INTERRUPT VECTORS ARE PLACED
                 ;AT THE START OF FLASH
0001a0 e0f1      	LDI  R31,1
0001a1 bffb      	OUT  GICR,R31
0001a2 bfeb      	OUT  GICR,R30
0001a3 bfe5      	OUT  MCUCR,R30
0001a4 bfe6      	OUT  EMCUCR,R30
                 
                 ;DISABLE WATCHDOG
0001a5 e1f8      	LDI  R31,0x18
0001a6 bdf1      	OUT  WDTCR,R31
0001a7 bde1      	OUT  WDTCR,R30
                 
                 ;CLEAR R2-R14
0001a8 e08d      	LDI  R24,13
0001a9 e0a2      	LDI  R26,2
0001aa 27bb      	CLR  R27
                 __CLEAR_REG:
0001ab 93ed      	ST   X+,R30
0001ac 958a      	DEC  R24
0001ad f7e9      	BRNE __CLEAR_REG
                 
                 ;CLEAR SRAM
0001ae ee8c      	LDI  R24,LOW(0x1EC)
0001af e091      	LDI  R25,HIGH(0x1EC)
0001b0 e6a0      	LDI  R26,0x60
                 __CLEAR_SRAM:
0001b1 93ed      	ST   X+,R30
0001b2 9701      	SBIW R24,1
0001b3 f7e9      	BRNE __CLEAR_SRAM
                 
                 ;GLOBAL VARIABLES INITIALIZATION
0001b4 e0ee      	LDI  R30,LOW(__GLOBAL_INI_TBL*2)
0001b5 e0f3      	LDI  R31,HIGH(__GLOBAL_INI_TBL*2)
                 __GLOBAL_INI_NEXT:
0001b6 9185      	LPM  R24,Z+
0001b7 9195      	LPM  R25,Z+
0001b8 9700      	SBIW R24,0
0001b9 f061      	BREQ __GLOBAL_INI_END
0001ba 91a5      	LPM  R26,Z+
0001bb 91b5      	LPM  R27,Z+
0001bc 9005      	LPM  R0,Z+
0001bd 9015      	LPM  R1,Z+
0001be 01bf      	MOVW R22,R30
0001bf 01f0      	MOVW R30,R0
                 __GLOBAL_INI_LOOP:
0001c0 9005      	LPM  R0,Z+
0001c1 920d      	ST   X+,R0
0001c2 9701      	SBIW R24,1
0001c3 f7e1      	BRNE __GLOBAL_INI_LOOP
0001c4 01fb      	MOVW R30,R22
0001c5 cff0      	RJMP __GLOBAL_INI_NEXT
                 __GLOBAL_INI_END:
                 
                 ;STACK POINTER INITIALIZATION
0001c6 e4eb      	LDI  R30,LOW(0x24B)
0001c7 bfed      	OUT  SPL,R30
0001c8 e0e2      	LDI  R30,HIGH(0x24B)
0001c9 bfee      	OUT  SPH,R30
                 
                 ;DATA STACK POINTER INITIALIZATION
0001ca ecc4      	LDI  R28,LOW(0xC4)
0001cb e0d0      	LDI  R29,HIGH(0xC4)
                 
0001cc c67e      	RJMP _main
                 
                 	.ESEG
                 	.ORG 0
                 
                 	.DSEG
                 	.ORG 0xC4
                 ;       1 /*****************************************************
                 ;       2 This program was produced by the
                 ;       3 CodeWizardAVR V1.24.6 Professional
                 ;       4 Automatic Program Generator
                 ;       5 © Copyright 1998-2005 Pavel Haiduc, HP InfoTech s.r.l.
                 ;       6 http://www.hpinfotech.com
                 ;       7 e-mail:office@hpinfotech.com
                 ;       8 
                 ;       9 Project : 
                 ;      10 Version : 
                 ;      11 Date    : 11/10/2005
                 ;      12 Author  : CUONGDD                            
                 ;      13 Company : 3iGROUP                           
                 ;      14 Comments: 
                 ;      15 
                 ;      16 
                 ;      17 Chip type           : ATmega16/162/8515
                 ;      18 Program type        : Application
                 ;      19 Clock frequency     : 8.000000 MHz
                 ;      20 Memory model        : Small
                 ;      21 External SRAM size  : 0
                 ;      22 Data Stack size     : 256
                 ;      23 *****************************************************/
                 ;      24 
                 ;      25 #include "define.h"      
                 ;      26 
                 ;      27 // 1 Wire Bus functions
                 ;      28 #asm
                 ;      29    .equ __w1_port=0x12 ;PORTD
                    .equ __w1_port=0x12 ;PORTD
                 ;      30    .equ __w1_bit=5
                    .equ __w1_bit=5
                 ;      31 #endasm
                 ;      32 #include <1wire.h>
                 ;      33 // DS1820 Temperature Sensor functions
                 ;      34 #include <ds18b20.h>
                 ;      35 // DS1307 Real Time Clock functions
                 ;      36 #include <ds1307.h>
                 ;      37                                       
                 ;      38 // Declare your global variables here     
                 ;      39 static PBYTE start_mem;
                 _start_mem_G1:
0000c4           	.BYTE 0x2
                 ;      40 static PBYTE end_mem;        
                 _end_mem_G1:
0000c6           	.BYTE 0x2
                 ;      41 static PBYTE buffer; 
                 _buffer_G1:
0000c8           	.BYTE 0x2
                 ;      42 static PBYTE org_mem;
                 _org_mem_G1:
0000ca           	.BYTE 0x2
                 ;      43 
                 ;      44 bit is_power_off         = 0;     
                 ;      45 
                 ;      46 register UINT count_row  = 0;
                 ;      47 register UINT count_col  = 0;     
                 ;      48 
                 ;      49 static BYTE scroll_rate   = 0; 
                 _scroll_rate_G1:
0000cc           	.BYTE 0x1
                 ;      50 static BYTE page_index   = 0;                                 
                 _page_index_G1:
0000cd           	.BYTE 0x1
                 ;      51 
                 ;      52 static UINT  tick_count  = 0;      
                 _tick_count_G1:
0000ce           	.BYTE 0x2
                 ;      53 static UINT  text_length = 0;
                 _text_length_G1:
0000d0           	.BYTE 0x2
                 ;      54 //static UINT  char_width[256];    
                 ;      55 
                 ;      56 flash char  szText[] = "** CuongQuay 0915651001 **";    
                 
                 	.CSEG
                 ;      57 static char szTitle[MAX_PAGE][MAX_TITLE]={
                 
                 	.DSEG
                 _szTitle_G1:
                 ;      58 "TO CHUC KINH TE    ",
                 ;      59 "DAN CU GUI GOP     ",
                 ;      60 "DAN CU BAC THANG   ",
                 ;      61 "DAN CU DU THUONG   ",
                 ;      62 "DAN CU THONG THUONG"
                 ;      63 };                               
0000d2           	.BYTE 0x64
                 ;      64 
                 ;      65 BYTE _xtable[]= {
                 __xtable:
                 ;      66                 0x11,0x9F,0x32,0x16,0x9C,0x54,0x50,0x1F,
                 ;      67                 0x10,0x14,0xFE,0xEF,0xFF,0xFF,0xFF,0xFF
                 ;      68                 };                                 
000136           	.BYTE 0x10
                 ;      69 
                 ;      70 // Global variables for message control
                 ;      71 BYTE  rx_message = UNKNOWN_MSG;
                 ;      72 WORD  rx_wparam  = 0;
                 ;      73 WORD  rx_lparam  = 0;
                 ;      74 // [0x55][0x55][0x55][rx_message][rx_wparam][rx_lparam]
                 ;      75                             
                 ;      76 extern void reset_serial();         
                 ;      77 extern void send_echo_msg();    
                 ;      78 extern BYTE eeprom_read(BYTE deviceID, PBYTE address);
                 ;      79 extern void eeprom_write(BYTE deviceID, PBYTE address, BYTE data);
                 ;      80 extern WORD eeprom_read_w(BYTE deviceID, PBYTE address);
                 ;      81 extern void eeprom_write_w(BYTE deviceID, PBYTE address, WORD data);
                 ;      82 extern void eeprom_write_page(BYTE deviceID, PBYTE address, PBYTE buffer, BYTE page_size);
                 ;      83 extern void eeprom_read_page(BYTE deviceID, PBYTE address, PBYTE buffer, BYTE page_size);
                 ;      84 
                 ;      85 static void _displayFrame();
                 ;      86 static void _displayLED();
                 ;      87 static void _doPaging(); 
                 ;      88                                                                                  
                 ;      89 void LoadPage();                  
                 ;      90 void GetRTCBuffer();      
                 ;      91 void FormatRTC(PBYTE pBuffer, UINT nBuffSize);
                 ;      92 void BlankRAM(PBYTE start_addr,PBYTE end_addr);
                 ;      93 ///////////////////////////////////////////////////////////////
                 ;      94 // Timer 0 overflow interrupt service routine , 40.5 us per tick                 
                 ;      95 ///////////////////////////////////////////////////////////////
                 ;      96 interrupt [TIM0_OVF] void timer0_ovf_isr(void)
                 ;      97 {       
                 
                 	.CSEG
                 _timer0_ovf_isr:
0001cd 93ea      	ST   -Y,R30
0001ce 93fa      	ST   -Y,R31
0001cf b7ef      	IN   R30,SREG
0001d0 93ea      	ST   -Y,R30
                 ;      98     TCNT0 = 0x05;       // 1ms = 4*250 = 1000 us
0001d1 e0e5      	LDI  R30,LOW(5)
0001d2 bfe2      	OUT  0x32,R30
                 ;      99     ++tick_count;    
0001d3 91e0 00ce 	LDS  R30,_tick_count_G1
0001d5 91f0 00cf 	LDS  R31,_tick_count_G1+1
0001d7 9631      	ADIW R30,1
0001d8 93e0 00ce 	STS  _tick_count_G1,R30
0001da 93f0 00cf 	STS  _tick_count_G1+1,R31
                 ;     100 }
0001dc 91e9      	LD   R30,Y+
0001dd bfef      	OUT  SREG,R30
0001de 91f9      	LD   R31,Y+
0001df 91e9      	LD   R30,Y+
0001e0 9518      	RETI
                 ;     101 
                 ;     102 #define RESET_WATCHDOG()    #asm("WDR");
                 ;     103 ///////////////////////////////////////////////////////////////
                 ;     104 // static function(s) for led matrix display panel
                 ;     105 ///////////////////////////////////////////////////////////////
                 ;     106 static void _setRow()
                 ;     107 {
                 __setRow_G1:
                 ;     108     BYTE i=0;      
                 ;     109     for (i=0; i<8; i++){            
0001e1 930a      	ST   -Y,R16
                 ;	i -> R16
0001e2 e000      	LDI  R16,0
0001e3 e000      	LDI  R16,LOW(0)
                 _0x5:
0001e4 3008      	CPI  R16,8
0001e5 f480      	BRSH _0x6
                 ;     110         if (i==(7-count_row)) SCAN_DAT = ON;        
0001e6 e0e7      	LDI  R30,LOW(7)
0001e7 e0f0      	LDI  R31,HIGH(7)
0001e8 19e4      	SUB  R30,R4
0001e9 09f5      	SBC  R31,R5
0001ea 2fa0      	MOV  R26,R16
0001eb e0b0      	LDI  R27,0
0001ec 17ea      	CP   R30,R26
0001ed 07fb      	CPC  R31,R27
0001ee f411      	BRNE _0x7
0001ef 9895      	CBI  0x12,5
                 ;     111         else SCAN_DAT = OFF;        
0001f0 c001      	RJMP _0x8
                 _0x7:
0001f1 9a95      	SBI  0x12,5
                 ;     112         SCAN_CLK = 1;
                 _0x8:
0001f2 9a93      	SBI  0x12,3
                 ;     113         SCAN_CLK = 0;            
0001f3 9893      	CBI  0x12,3
                 ;     114     }
0001f4 5f0f      	SUBI R16,-1
0001f5 cfee      	RJMP _0x5
                 _0x6:
                 ;     115 }
0001f6 c00c      	RJMP _0x10D
                 ;     116             
                 ;     117 static void _powerOff()
                 ;     118 {
                 __powerOff_G1:
                 ;     119     BYTE i =0;               
                 ;     120     SCAN_DAT = OFF;  // data scan low        
0001f7 930a      	ST   -Y,R16
                 ;	i -> R16
0001f8 e000      	LDI  R16,0
0001f9 9a95      	SBI  0x12,5
                 ;     121     for (i=0; i< 8; i++)    
0001fa e000      	LDI  R16,LOW(0)
                 _0xA:
0001fb 3008      	CPI  R16,8
0001fc f420      	BRSH _0xB
                 ;     122     {                                              
                 ;     123         SCAN_CLK = 1;    // clock scan high
0001fd 9a93      	SBI  0x12,3
                 ;     124         SCAN_CLK = 0;    // clock scan low            
0001fe 9893      	CBI  0x12,3
                 ;     125     }                                         
0001ff 5f0f      	SUBI R16,-1
000200 cffa      	RJMP _0xA
                 _0xB:
                 ;     126     SCAN_STB = 1;    // strobe scan high
000201 9a94      	SBI  0x12,4
                 ;     127     SCAN_STB = 0;    // strobe scan low                    
000202 9894      	CBI  0x12,4
                 ;     128 }
                 _0x10D:
000203 9109      	LD   R16,Y+
000204 9508      	RET
                 ;     129 #define _DELAY_BUS      1
                 ;     130 static void _displayLED()
                 ;     131 {                                  
                 __displayLED_G1:
                 ;     132     UINT i=0;        
                 ;     133     BYTE data[6];
                 ;     134     BYTE mask=0,k=0;       
                 ;     135     PBYTE buffer =(PBYTE)START_RAM+SCREEN_WIDTH;
                 ;     136     CTRL_CLK = 0;
000205 9726      	SBIW R28,6
000206 db0a      	RCALL __SAVELOCR6
                 ;	i -> R16,R17
                 ;	data -> Y+6
                 ;	mask -> R18
                 ;	k -> R19
                 ;	*buffer -> R20,R21
000207 e000      	LDI  R16,0
000208 e010      	LDI  R17,0
000209 e020      	LDI  R18,0
00020a e030      	LDI  R19,0
00020b e648      	LDI  R20,LOW(0x568)
00020c e055      	LDI  R21,HIGH(0x568)
00020d 98c6      	CBI  0x18,6
                 ;     137     CTRL_STB = 0;
00020e 98c7      	CBI  0x18,7
                 ;     138     for (i=0; i< 60; i++){      
00020f e000
000210 e010      	__GETWRN 16,17,0
                 _0xD:
000211 330c
000212 e0e0
000213 071e      	__CPWRN 16,17,60
000214 f008      	BRLO PC+2
000215 c09e      	RJMP _0xE
                 ;     139         mask = 0x01;
000216 e021      	LDI  R18,LOW(1)
                 ;     140 #ifdef __TEST_LED_        
                 ;     141         data[0] = _xtable[i%(page_index+1)];
                 ;     142         data[1] = data[0];
                 ;     143         data[2] = data[0];
                 ;     144         data[3] = data[0];
                 ;     145         data[4] = data[0];
                 ;     146         data[5] = data[0];
                 ;     147 #else                                     
                 ;     148         data[0] = buffer[60 -i-1];       
000217 e3ec      	LDI  R30,LOW(60)
000218 e0f0      	LDI  R31,HIGH(60)
000219 1be0      	SUB  R30,R16
00021a 0bf1      	SBC  R31,R17
00021b 9731      	SBIW R30,1
00021c 0fe4      	ADD  R30,R20
00021d 1ff5      	ADC  R31,R21
00021e 81e0      	LD   R30,Z
00021f 83ee      	STD  Y+6,R30
                 ;     149         data[1] = buffer[120-i-1];
000220 e7e8      	LDI  R30,LOW(120)
000221 e0f0      	LDI  R31,HIGH(120)
000222 1be0      	SUB  R30,R16
000223 0bf1      	SBC  R31,R17
000224 9731      	SBIW R30,1
000225 0fe4      	ADD  R30,R20
000226 1ff5      	ADC  R31,R21
000227 81e0      	LD   R30,Z
000228 83ef      	STD  Y+7,R30
                 ;     150         data[2] = buffer[180-i-1];
000229 ebe4      	LDI  R30,LOW(180)
00022a e0f0      	LDI  R31,HIGH(180)
00022b 1be0      	SUB  R30,R16
00022c 0bf1      	SBC  R31,R17
00022d 9731      	SBIW R30,1
00022e 0fe4      	ADD  R30,R20
00022f 1ff5      	ADC  R31,R21
000230 81e0      	LD   R30,Z
000231 87e8      	STD  Y+8,R30
                 ;     151         data[3] = buffer[240-i-1];
000232 efe0      	LDI  R30,LOW(240)
000233 e0f0      	LDI  R31,HIGH(240)
000234 1be0      	SUB  R30,R16
000235 0bf1      	SBC  R31,R17
000236 9731      	SBIW R30,1
000237 0fe4      	ADD  R30,R20
000238 1ff5      	ADC  R31,R21
000239 81e0      	LD   R30,Z
00023a 87e9      	STD  Y+9,R30
                 ;     152         data[4] = buffer[300-i-1];
00023b e2ec      	LDI  R30,LOW(300)
00023c e0f1      	LDI  R31,HIGH(300)
00023d 1be0      	SUB  R30,R16
00023e 0bf1      	SBC  R31,R17
00023f 9731      	SBIW R30,1
000240 0fe4      	ADD  R30,R20
000241 1ff5      	ADC  R31,R21
000242 81e0      	LD   R30,Z
000243 87ea      	STD  Y+10,R30
                 ;     153         data[5] = buffer[360-i-1];        
000244 e6e8      	LDI  R30,LOW(360)
000245 e0f1      	LDI  R31,HIGH(360)
000246 1be0      	SUB  R30,R16
000247 0bf1      	SBC  R31,R17
000248 9731      	SBIW R30,1
000249 0fe4      	ADD  R30,R20
00024a 1ff5      	ADC  R31,R21
00024b 81e0      	LD   R30,Z
00024c 87eb      	STD  Y+11,R30
                 ;     154 #endif        
                 ;     155         for (k=0; k< 8; k++){
00024d e030      	LDI  R19,LOW(0)
                 _0x10:
00024e 3038      	CPI  R19,8
00024f f008      	BRLO PC+2
000250 c05f      	RJMP _0x11
                 ;     156             if ((data[0]&mask)>>(k)){
000251 2fe2      	MOV  R30,R18
000252 81ae      	LDD  R26,Y+6
000253 23ea      	AND  R30,R26
000254 2fae      	MOV  R26,R30
000255 2fe3      	MOV  R30,R19
000256 da5b      	RCALL __LSRB12
000257 30e0      	CPI  R30,0
000258 f011      	BREQ _0x12
                 ;     157                 DATA_01 = 1;delay_us(_DELAY_BUS);
000259 9ac0      	SBI  0x18,0
00025a c001      	RJMP _0x10E
                 ;     158             }
                 ;     159             else{
                 _0x12:
                 ;     160                 DATA_01 = 0;delay_us(_DELAY_BUS);
00025b 98c0      	CBI  0x18,0
                 _0x10E:
00025c e085
00025d 958a
00025e f7f1      	__DELAY_USB 5
                 ;     161             }    
                 ;     162             
                 ;     163             if ((data[1]&mask)>>(k)){
00025f 2fe2      	MOV  R30,R18
000260 81af      	LDD  R26,Y+7
000261 23ea      	AND  R30,R26
000262 2fae      	MOV  R26,R30
000263 2fe3      	MOV  R30,R19
000264 da4d      	RCALL __LSRB12
000265 30e0      	CPI  R30,0
000266 f011      	BREQ _0x14
                 ;     164                 DATA_02 = 1;delay_us(_DELAY_BUS);
000267 9ac1      	SBI  0x18,1
000268 c001      	RJMP _0x10F
                 ;     165             }
                 ;     166             else{
                 _0x14:
                 ;     167                 DATA_02 = 0;delay_us(_DELAY_BUS);
000269 98c1      	CBI  0x18,1
                 _0x10F:
00026a e085
00026b 958a
00026c f7f1      	__DELAY_USB 5
                 ;     168             }
                 ;     169             
                 ;     170             if ((data[2]&mask)>>(k)){
00026d 2fe2      	MOV  R30,R18
00026e 85a8      	LDD  R26,Y+8
00026f 23ea      	AND  R30,R26
000270 2fae      	MOV  R26,R30
000271 2fe3      	MOV  R30,R19
000272 da3f      	RCALL __LSRB12
000273 30e0      	CPI  R30,0
000274 f011      	BREQ _0x16
                 ;     171                 DATA_03 = 1;delay_us(_DELAY_BUS);
000275 9ac2      	SBI  0x18,2
000276 c001      	RJMP _0x110
                 ;     172             }
                 ;     173             else{
                 _0x16:
                 ;     174                 DATA_03 = 0;delay_us(_DELAY_BUS);
000277 98c2      	CBI  0x18,2
                 _0x110:
000278 e085
000279 958a
00027a f7f1      	__DELAY_USB 5
                 ;     175             }
                 ;     176             
                 ;     177             if ((data[3]&mask)>>(k)){
00027b 2fe2      	MOV  R30,R18
00027c 85a9      	LDD  R26,Y+9
00027d 23ea      	AND  R30,R26
00027e 2fae      	MOV  R26,R30
00027f 2fe3      	MOV  R30,R19
000280 da31      	RCALL __LSRB12
000281 30e0      	CPI  R30,0
000282 f011      	BREQ _0x18
                 ;     178                 DATA_04 = 1;delay_us(_DELAY_BUS);
000283 9ac3      	SBI  0x18,3
000284 c001      	RJMP _0x111
                 ;     179             }
                 ;     180             else{
                 _0x18:
                 ;     181                 DATA_04 = 0;delay_us(_DELAY_BUS);
000285 98c3      	CBI  0x18,3
                 _0x111:
000286 e085
000287 958a
000288 f7f1      	__DELAY_USB 5
                 ;     182             }
                 ;     183             
                 ;     184             if ((data[4]&mask)>>(k)){
000289 2fe2      	MOV  R30,R18
00028a 85aa      	LDD  R26,Y+10
00028b 23ea      	AND  R30,R26
00028c 2fae      	MOV  R26,R30
00028d 2fe3      	MOV  R30,R19
00028e da23      	RCALL __LSRB12
00028f 30e0      	CPI  R30,0
000290 f011      	BREQ _0x1A
                 ;     185                 DATA_05 = 1;delay_us(_DELAY_BUS);
000291 9ac4      	SBI  0x18,4
000292 c001      	RJMP _0x112
                 ;     186             }
                 ;     187             else{
                 _0x1A:
                 ;     188                 DATA_05 = 0;delay_us(_DELAY_BUS);
000293 98c4      	CBI  0x18,4
                 _0x112:
000294 e085
000295 958a
000296 f7f1      	__DELAY_USB 5
                 ;     189             }
                 ;     190                       
                 ;     191             if ((data[5]&mask)>>(k)){
000297 2fe2      	MOV  R30,R18
000298 85ab      	LDD  R26,Y+11
000299 23ea      	AND  R30,R26
00029a 2fae      	MOV  R26,R30
00029b 2fe3      	MOV  R30,R19
00029c da15      	RCALL __LSRB12
00029d 30e0      	CPI  R30,0
00029e f011      	BREQ _0x1C
                 ;     192                 DATA_06 = 1;delay_us(_DELAY_BUS);
00029f 9ac5      	SBI  0x18,5
0002a0 c001      	RJMP _0x113
                 ;     193             }
                 ;     194             else{
                 _0x1C:
                 ;     195                 DATA_06 = 0;delay_us(_DELAY_BUS);
0002a1 98c5      	CBI  0x18,5
                 _0x113:
0002a2 e085
0002a3 958a
0002a4 f7f1      	__DELAY_USB 5
                 ;     196             }
                 ;     197             
                 ;     198             CTRL_CLK = 1;delay_us(_DELAY_BUS);
0002a5 9ac6      	SBI  0x18,6
0002a6 e085
0002a7 958a
0002a8 f7f1      	__DELAY_USB 5
                 ;     199             CTRL_CLK = 0;delay_us(_DELAY_BUS);        
0002a9 98c6      	CBI  0x18,6
0002aa e085
0002ab 958a
0002ac f7f1      	__DELAY_USB 5
                 ;     200             mask = mask<<1;  
0002ad 0f22      	LSL  R18
                 ;     201         }                   
0002ae 5f3f      	SUBI R19,-1
0002af cf9e      	RJMP _0x10
                 _0x11:
                 ;     202         RESET_WATCHDOG();
0002b0 95a8      	WDR
                 ;     203     }	             
0002b1 5f0f
0002b2 4f1f      	__ADDWRN 16,17,1
0002b3 cf5d      	RJMP _0xD
                 _0xE:
                 ;     204     CTRL_STB = 1;delay_us(_DELAY_BUS);
0002b4 9ac7      	SBI  0x18,7
0002b5 e085
0002b6 958a
0002b7 f7f1      	__DELAY_USB 5
                 ;     205     CTRL_STB = 0;delay_us(_DELAY_BUS);
0002b8 98c7      	CBI  0x18,7
0002b9 e085
0002ba 958a
0002bb f7f1      	__DELAY_USB 5
                 ;     206 }        
0002bc da5b      	RCALL __LOADLOCR6
0002bd 962c      	ADIW R28,12
0002be 9508      	RET
                 ;     207 
                 ;     208 static void _displayFrame()
                 ;     209 {                 
                 __displayFrame_G1:
                 ;     210     BYTE data = 0;  
                 ;     211     count_col = 0;
0002bf 930a      	ST   -Y,R16
                 ;	data -> R16
0002c0 e000      	LDI  R16,0
0002c1 2466      	CLR  R6
0002c2 2477      	CLR  R7
                 ;     212     count_row = 0;         
0002c3 2444      	CLR  R4
0002c4 2455      	CLR  R5
                 ;     213 
                 ;     214     if (is_power_off ==1){
0002c5 fe20      	SBRS R2,0
0002c6 c002      	RJMP _0x1E
                 ;     215         _powerOff();
0002c7 df2f      	RCALL __powerOff_G1
                 ;     216         return;
0002c8 c042      	RJMP _0x10C
                 ;     217     }
                 ;     218     // display one frame in the screen at the specific time 
                 ;     219     for (buffer = start_mem;buffer < (END_RAM); buffer++)  
                 _0x1E:
0002c9 91e0 00c4 	LDS  R30,_start_mem_G1
0002cb 91f0 00c5 	LDS  R31,_start_mem_G1+1
0002cd 93e0 00c8 	STS  _buffer_G1,R30
0002cf 93f0 00c9 	STS  _buffer_G1+1,R31
                 _0x20:
0002d1 91a0 00c8 	LDS  R26,_buffer_G1
0002d3 91b0 00c9 	LDS  R27,_buffer_G1+1
0002d5 3faf      	CPI  R26,LOW(0x7FFF)
0002d6 e7ef      	LDI  R30,HIGH(0x7FFF)
0002d7 07be      	CPC  R27,R30
0002d8 f590      	BRSH _0x21
                 ;     220     {                     
                 ;     221         data = (*buffer);
0002d9 910c      	LD   R16,X
                 ;     222         #ifdef ENABLE_MASK_ROW  
                 ;     223         data &= ENABLE_MASK_ROW;
0002da 700f      	ANDI R16,LOW(15)
                 ;     224         #endif //ENABLE_MASK_ROW
                 ;     225         DATA_BIT = (data&0x01);
0002db fb00      	BST  R16,0
0002dc b3a2      	IN   R26,0x12
0002dd f9a2      	BLD  R26,2
0002de bba2      	OUT  0x12,R26
                 ;     226         
                 ;     227         DATA_CLK = 1;    // clock high
0002df 9a3a      	SBI  0x7,2
                 ;     228         DATA_CLK = 0;    // clock low   
0002e0 983a      	CBI  0x7,2
                 ;     229         if ( ++count_col >= SCREEN_WIDTH)
0002e1 01f3      	MOVW R30,R6
0002e2 9631      	ADIW R30,1
0002e3 013f      	MOVW R6,R30
0002e4 36e8      	CPI  R30,LOW(0x68)
0002e5 e0a0      	LDI  R26,HIGH(0x68)
0002e6 07fa      	CPC  R31,R26
0002e7 f0c8      	BRLO _0x22
                 ;     230         {                                            
                 ;     231             count_col = 0;      // reset for next                                                                                                                       
0002e8 2466      	CLR  R6
0002e9 2477      	CLR  R7
                 ;     232             _powerOff();        // turn all led off            
0002ea df0c      	RCALL __powerOff_G1
                 ;     233             
                 ;     234             SCAN_STB = 0;       // strobe low   
0002eb 9894      	CBI  0x12,4
                 ;     235             _setRow();          // turn row-led on                                                              
0002ec def4      	RCALL __setRow_G1
                 ;     236             SCAN_STB = 1;       // strobe high            
0002ed 9a94      	SBI  0x12,4
                 ;     237                  
                 ;     238             DATA_STB = 1;       // strobe high            
0002ee 9a38      	SBI  0x7,0
                 ;     239             DATA_STB = 0;       // strobe low            
0002ef 9838      	CBI  0x7,0
                 ;     240                         
                 ;     241             if (++count_row >= 8){ 
0002f0 01f2      	MOVW R30,R4
0002f1 9631      	ADIW R30,1
0002f2 012f      	MOVW R4,R30
0002f3 9738      	SBIW R30,8
0002f4 f010      	BRLO _0x23
                 ;     242                 count_row = 0;
0002f5 2444      	CLR  R4
0002f6 2455      	CLR  R5
                 ;     243             }                                                                                         
                 ;     244             buffer += (DATA_LENGTH - SCREEN_WIDTH);                 
                 _0x23:
0002f7 91e0 00c8 	LDS  R30,_buffer_G1
0002f9 91f0 00c9 	LDS  R31,_buffer_G1+1
0002fb 57e0      	SUBI R30,LOW(-3728)
0002fc 4ff1      	SBCI R31,HIGH(-3728)
0002fd 93e0 00c8 	STS  _buffer_G1,R30
0002ff 93f0 00c9 	STS  _buffer_G1+1,R31
                 ;     245         }                   
                 ;     246     }                         	
                 _0x22:
000301 91e0 00c8 	LDS  R30,_buffer_G1
000303 91f0 00c9 	LDS  R31,_buffer_G1+1
000305 9631      	ADIW R30,1
000306 93e0 00c8 	STS  _buffer_G1,R30
000308 93f0 00c9 	STS  _buffer_G1+1,R31
00030a cfc6      	RJMP _0x20
                 _0x21:
                 ;     247 }     
                 _0x10C:
00030b 9109      	LD   R16,Y+
00030c 9508      	RET
                 ;     248                                   
                 ;     249 static void _doPaging()
                 ;     250 {
                 __doPaging_G1:
                 ;     251     // init state                         
                 ;     252     DATA_STB = 0;
00030d 9838      	CBI  0x7,0
                 ;     253     DATA_CLK = 0;               
00030e 983a      	CBI  0x7,2
                 ;     254     // scroll left with shift_step bit(s)
                 ;     255     if(tick_count >= 1000){   
00030f 91a0 00ce 	LDS  R26,_tick_count_G1
000311 91b0 00cf 	LDS  R27,_tick_count_G1+1
000313 3ea8      	CPI  R26,LOW(0x3E8)
000314 e0e3      	LDI  R30,HIGH(0x3E8)
000315 07be      	CPC  R27,R30
000316 f080      	BRLO _0x24
                 ;     256         tick_count = 0; 
000317 e0e0      	LDI  R30,0
000318 93e0 00ce 	STS  _tick_count_G1,R30
00031a 93e0 00cf 	STS  _tick_count_G1+1,R30
                 ;     257         if (scroll_rate >0){           
00031c 91a0 00cc 	LDS  R26,_scroll_rate_G1
00031e 30a1      	CPI  R26,LOW(0x1)
00031f f030      	BRLO _0x25
                 ;     258             scroll_rate--;             
000320 91e0 00cc 	LDS  R30,_scroll_rate_G1
000322 50e1      	SUBI R30,LOW(1)
000323 93e0 00cc 	STS  _scroll_rate_G1,R30
                 ;     259         }
                 ;     260         else{                                 
000325 c001      	RJMP _0x26
                 _0x25:
                 ;     261             LoadPage();                        
000326 d35b      	RCALL _LoadPage
                 ;     262         }
                 _0x26:
                 ;     263     }        
                 ;     264 }                 
                 _0x24:
000327 9508      	RET
                 ;     265 
                 ;     266                                           
                 ;     267 ////////////////////////////////////////////////////////////////////
                 ;     268 // General functions
                 ;     269 //////////////////////////////////////////////////////////////////// 
                 ;     270 BYTE GetLocalTime(BYTE hh, int offset)
                 ;     271 {                          
                 _GetLocalTime:
                 ;     272     int lval= 0;
                 ;     273     if (offset){       
000328 d9ec      	RCALL __SAVELOCR2
                 ;	hh -> Y+4
                 ;	offset -> Y+2
                 ;	lval -> R16,R17
000329 e000      	LDI  R16,0
00032a e010      	LDI  R17,0
00032b 81ea      	LDD  R30,Y+2
00032c 81fb      	LDD  R31,Y+2+1
00032d 9730      	SBIW R30,0
00032e f0b1      	BREQ _0x27
                 ;     274         lval = (int)hh+offset;    
00032f 81ec      	LDD  R30,Y+4
000330 e0f0      	LDI  R31,0
000331 81aa      	LDD  R26,Y+2
000332 81bb      	LDD  R27,Y+2+1
000333 0fea      	ADD  R30,R26
000334 1ffb      	ADC  R31,R27
000335 018f      	MOVW R16,R30
                 ;     275         if (lval >= 24){
000336 3108
000337 e0e0
000338 071e      	__CPWRN 16,17,24
000339 f02c      	BRLT _0x28
                 ;     276             lval = lval%24;
00033a 01d8      	MOVW R26,R16
00033b e1e8      	LDI  R30,LOW(24)
00033c e0f0      	LDI  R31,HIGH(24)
00033d d9aa      	RCALL __MODW21
00033e 018f      	MOVW R16,R30
                 ;     277         }            
                 ;     278         if (lval <0){
                 _0x28:
00033f 5000      	SUBI R16,0
000340 4010      	SBCI R17,0
000341 f414      	BRGE _0x29
                 ;     279             lval = 24 + lval;
000342 5e08
000343 4f1f      	__ADDWRN 16,17,24
                 ;     280         }
                 ;     281     }               
                 _0x29:
                 ;     282     else{
000344 c002      	RJMP _0x2A
                 _0x27:
                 ;     283         lval = hh;
000345 810c      	LDD  R16,Y+4
000346 2711      	CLR  R17
                 ;     284     }    
                 _0x2A:
                 ;     285     return (BYTE)lval;
000347 2fe0      	MOV  R30,R16
000348 d9d3      	RCALL __LOADLOCR2
000349 9625      	ADIW R28,5
00034a 9508      	RET
                 ;     286 }                                    
                 ;     287 
                 ;     288 void GetRTCBuffer()
                 ;     289 {
                 _GetRTCBuffer:
                 ;     290     UINT nBuffSize =34;
                 ;     291     BYTE pBuffer[34];              
                 ;     292     BYTE hh=0,mm=0,ss=0,DD=0,MM=0,YY=0;  
                 ;     293     i2c_init();   
00034b 97a4      	SBIW R28,36
00034c e082      	LDI  R24,2
00034d e0a0      	LDI  R26,LOW(0)
00034e e0b0      	LDI  R27,HIGH(0)
00034f e4ee      	LDI  R30,LOW(_0x2B*2)
000350 e0f0      	LDI  R31,HIGH(_0x2B*2)
000351 d9d0      	RCALL __INITLOCB
000352 d9be      	RCALL __SAVELOCR6
                 ;	nBuffSize -> R16,R17
                 ;	pBuffer -> Y+8
                 ;	hh -> R18
                 ;	mm -> R19
                 ;	ss -> R20
                 ;	DD -> R21
                 ;	MM -> Y+7
                 ;	YY -> Y+6
000353 e202      	LDI  R16,34
000354 e010      	LDI  R17,0
000355 e020      	LDI  R18,0
000356 e030      	LDI  R19,0
000357 e040      	LDI  R20,0
000358 e050      	LDI  R21,0
000359 d85f      	RCALL _i2c_init
                 ;     294     rtc_get_date(&DD,&MM,&YY);
00035a b7ed      	IN   R30,SPL
00035b b7fe      	IN   R31,SPH
00035c 93fa      	ST   -Y,R31
00035d 93ea      	ST   -Y,R30
00035e 935f      	PUSH R21
00035f 01fe      	MOVW R30,R28
000360 9639      	ADIW R30,9
000361 93fa      	ST   -Y,R31
000362 93ea      	ST   -Y,R30
000363 01fe      	MOVW R30,R28
000364 963a      	ADIW R30,10
000365 93fa      	ST   -Y,R31
000366 93ea      	ST   -Y,R30
000367 d812      	RCALL _rtc_get_date
000368 915f      	POP  R21
                 ;     295     rtc_get_time(&hh,&mm,&ss);                              
000369 b7ed      	IN   R30,SPL
00036a b7fe      	IN   R31,SPH
00036b 93fa      	ST   -Y,R31
00036c 93ea      	ST   -Y,R30
00036d 932f      	PUSH R18
00036e b7ed      	IN   R30,SPL
00036f b7fe      	IN   R31,SPH
000370 93fa      	ST   -Y,R31
000371 93ea      	ST   -Y,R30
000372 933f      	PUSH R19
000373 b7ed      	IN   R30,SPL
000374 b7fe      	IN   R31,SPH
000375 93fa      	ST   -Y,R31
000376 93ea      	ST   -Y,R30
000377 934f      	PUSH R20
000378 d7c4      	RCALL _rtc_get_time
000379 914f      	POP  R20
00037a 913f      	POP  R19
00037b 912f      	POP  R18
                 ;     296 #ifdef __DUMP_LED_    
                 ;     297     printf("GMT: %02d:%02d:%02d %02d-%02d-%02d\r\n",hh,mm,ss,DD,MM+1,YY);              
00037c eeee
00037d e0f0      	__POINTW1FN _0,100
00037e 93fa      	ST   -Y,R31
00037f 93ea      	ST   -Y,R30
000380 2fe2      	MOV  R30,R18
000381 27ff      	CLR  R31
000382 2766      	CLR  R22
000383 2777      	CLR  R23
000384 d987      	RCALL __PUTPARD1
000385 2fe3      	MOV  R30,R19
000386 27ff      	CLR  R31
000387 2766      	CLR  R22
000388 2777      	CLR  R23
000389 d982      	RCALL __PUTPARD1
00038a 2fe4      	MOV  R30,R20
00038b 27ff      	CLR  R31
00038c 2766      	CLR  R22
00038d 2777      	CLR  R23
00038e d97d      	RCALL __PUTPARD1
00038f 2fe5      	MOV  R30,R21
000390 27ff      	CLR  R31
000391 2766      	CLR  R22
000392 2777      	CLR  R23
000393 d978      	RCALL __PUTPARD1
000394 8de9      	LDD  R30,Y+25
000395 5fef      	SUBI R30,-LOW(1)
000396 27ff      	CLR  R31
000397 2766      	CLR  R22
000398 2777      	CLR  R23
000399 d972      	RCALL __PUTPARD1
00039a 8dec      	LDD  R30,Y+28
00039b 27ff      	CLR  R31
00039c 2766      	CLR  R22
00039d 2777      	CLR  R23
00039e d96d      	RCALL __PUTPARD1
00039f e188      	LDI  R24,24
0003a0 d766      	RCALL _printf
0003a1 966a      	ADIW R28,26
                 ;     298 #endif    
                 ;     299     if (DD> 99) DD =0;if (MM> 99) MM =0;if (YY> 99) YY =0;
0003a2 3654      	CPI  R21,100
0003a3 f008      	BRLO _0x2C
0003a4 e050      	LDI  R21,LOW(0)
                 _0x2C:
0003a5 81af      	LDD  R26,Y+7
0003a6 36a4      	CPI  R26,LOW(0x64)
0003a7 f010      	BRLO _0x2D
0003a8 e0e0      	LDI  R30,LOW(0)
0003a9 83ef      	STD  Y+7,R30
                 _0x2D:
0003aa 81ae      	LDD  R26,Y+6
0003ab 36a4      	CPI  R26,LOW(0x64)
0003ac f010      	BRLO _0x2E
0003ad e0e0      	LDI  R30,LOW(0)
0003ae 83ee      	STD  Y+6,R30
                 ;     300     if (hh> 99) hh =0;if (mm> 99) mm =0;if (ss> 99) ss =0;                    
                 _0x2E:
0003af 3624      	CPI  R18,100
0003b0 f008      	BRLO _0x2F
0003b1 e020      	LDI  R18,LOW(0)
                 _0x2F:
0003b2 3634      	CPI  R19,100
0003b3 f008      	BRLO _0x30
0003b4 e030      	LDI  R19,LOW(0)
                 _0x30:
0003b5 3644      	CPI  R20,100
0003b6 f008      	BRLO _0x31
0003b7 e040      	LDI  R20,LOW(0)
                 ;     301     sprintf(pBuffer,    "%02d-%02d-%4d"\
                 ;     302                         "%02d%02d"\
                 ;     303                         "%02d%02d"\
                 ;     304                         "%02d%02d"\
                 ;     305                         "%02d%02d"\
                 ;     306                         "%02d%02d"\
                 ;     307                         "%02d%02d",              
                 _0x31:
                 ;     308                         DD,MM+1,2000+YY,                                  
                 ;     309                         GetLocalTime(hh,+7),mm,     // HANOI
                 ;     310                         GetLocalTime(hh,-6),mm,     // NEWYORK
                 ;     311                         GetLocalTime(hh,+1),mm,     // PARIS
                 ;     312                         GetLocalTime(hh,+0),mm,     // LONDON
                 ;     313                         GetLocalTime(hh,+3),mm,     // MOSCOW
                 ;     314                         GetLocalTime(hh,+8),mm      // BELJING                        
                 ;     315                         );           
0003b8 01fe      	MOVW R30,R28
0003b9 9638      	ADIW R30,8
0003ba 93fa      	ST   -Y,R31
0003bb 93ea      	ST   -Y,R30
0003bc e1e3
0003bd e0f1      	__POINTW1FN _0,137
0003be 93fa      	ST   -Y,R31
0003bf 93ea      	ST   -Y,R30
0003c0 2fe5      	MOV  R30,R21
0003c1 27ff      	CLR  R31
0003c2 2766      	CLR  R22
0003c3 2777      	CLR  R23
0003c4 d947      	RCALL __PUTPARD1
0003c5 85ef      	LDD  R30,Y+15
0003c6 5fef      	SUBI R30,-LOW(1)
0003c7 27ff      	CLR  R31
0003c8 2766      	CLR  R22
0003c9 2777      	CLR  R23
0003ca d941      	RCALL __PUTPARD1
0003cb 89ea      	LDD  R30,Y+18
0003cc eda0      	LDI  R26,LOW(2000)
0003cd e0b7      	LDI  R27,HIGH(2000)
0003ce e0f0      	LDI  R31,0
0003cf 0fea      	ADD  R30,R26
0003d0 1ffb      	ADC  R31,R27
0003d1 d8f1      	RCALL __CWD1
0003d2 d939      	RCALL __PUTPARD1
0003d3 932a      	ST   -Y,R18
0003d4 e0e7      	LDI  R30,LOW(7)
0003d5 e0f0      	LDI  R31,HIGH(7)
0003d6 93fa      	ST   -Y,R31
0003d7 93ea      	ST   -Y,R30
0003d8 df4f      	RCALL _GetLocalTime
0003d9 27ff      	CLR  R31
0003da 2766      	CLR  R22
0003db 2777      	CLR  R23
0003dc d92f      	RCALL __PUTPARD1
0003dd 2fe3      	MOV  R30,R19
0003de 27ff      	CLR  R31
0003df 2766      	CLR  R22
0003e0 2777      	CLR  R23
0003e1 d92a      	RCALL __PUTPARD1
0003e2 932a      	ST   -Y,R18
0003e3 efea      	LDI  R30,LOW(65530)
0003e4 efff      	LDI  R31,HIGH(65530)
0003e5 93fa      	ST   -Y,R31
0003e6 93ea      	ST   -Y,R30
0003e7 df40      	RCALL _GetLocalTime
0003e8 27ff      	CLR  R31
0003e9 2766      	CLR  R22
0003ea 2777      	CLR  R23
0003eb d920      	RCALL __PUTPARD1
0003ec 2fe3      	MOV  R30,R19
0003ed 27ff      	CLR  R31
0003ee 2766      	CLR  R22
0003ef 2777      	CLR  R23
0003f0 d91b      	RCALL __PUTPARD1
0003f1 932a      	ST   -Y,R18
0003f2 e0e1      	LDI  R30,LOW(1)
0003f3 e0f0      	LDI  R31,HIGH(1)
0003f4 93fa      	ST   -Y,R31
0003f5 93ea      	ST   -Y,R30
0003f6 df31      	RCALL _GetLocalTime
0003f7 27ff      	CLR  R31
0003f8 2766      	CLR  R22
0003f9 2777      	CLR  R23
0003fa d911      	RCALL __PUTPARD1
0003fb 2fe3      	MOV  R30,R19
0003fc 27ff      	CLR  R31
0003fd 2766      	CLR  R22
0003fe 2777      	CLR  R23
0003ff d90c      	RCALL __PUTPARD1
000400 932a      	ST   -Y,R18
000401 e0e0      	LDI  R30,LOW(0)
000402 e0f0      	LDI  R31,HIGH(0)
000403 93fa      	ST   -Y,R31
000404 93ea      	ST   -Y,R30
000405 df22      	RCALL _GetLocalTime
000406 27ff      	CLR  R31
000407 2766      	CLR  R22
000408 2777      	CLR  R23
000409 d902      	RCALL __PUTPARD1
00040a 2fe3      	MOV  R30,R19
00040b 27ff      	CLR  R31
00040c 2766      	CLR  R22
00040d 2777      	CLR  R23
00040e d8fd      	RCALL __PUTPARD1
00040f 932a      	ST   -Y,R18
000410 e0e3      	LDI  R30,LOW(3)
000411 e0f0      	LDI  R31,HIGH(3)
000412 93fa      	ST   -Y,R31
000413 93ea      	ST   -Y,R30
000414 df13      	RCALL _GetLocalTime
000415 27ff      	CLR  R31
000416 2766      	CLR  R22
000417 2777      	CLR  R23
000418 d8f3      	RCALL __PUTPARD1
000419 2fe3      	MOV  R30,R19
00041a 27ff      	CLR  R31
00041b 2766      	CLR  R22
00041c 2777      	CLR  R23
00041d d8ee      	RCALL __PUTPARD1
00041e 932a      	ST   -Y,R18
00041f e0e8      	LDI  R30,LOW(8)
000420 e0f0      	LDI  R31,HIGH(8)
000421 93fa      	ST   -Y,R31
000422 93ea      	ST   -Y,R30
000423 df04      	RCALL _GetLocalTime
000424 27ff      	CLR  R31
000425 2766      	CLR  R22
000426 2777      	CLR  R23
000427 d8e4      	RCALL __PUTPARD1
000428 2fe3      	MOV  R30,R19
000429 27ff      	CLR  R31
00042a 2766      	CLR  R22
00042b 2777      	CLR  R23
00042c d8df      	RCALL __PUTPARD1
00042d e38c      	LDI  R24,60
00042e d6b9      	RCALL _sprintf
00042f 96ef      	ADIW R28,63
000430 9621      	ADIW R28,1
                 ;     316 #ifdef __DUMP_LED_    
                 ;     317     printf("%s \r\n",pBuffer);
000431 e5e1
000432 e0f1      	__POINTW1FN _0,199
000433 93fa      	ST   -Y,R31
000434 93ea      	ST   -Y,R30
000435 01fe      	MOVW R30,R28
000436 963a      	ADIW R30,10
000437 2766      	CLR  R22
000438 2777      	CLR  R23
000439 d8d2      	RCALL __PUTPARD1
00043a e084      	LDI  R24,4
00043b d6cb      	RCALL _printf
00043c 9626      	ADIW R28,6
                 ;     318 #endif    
                 ;     319     FormatRTC(pBuffer,nBuffSize);   
00043d 01fe      	MOVW R30,R28
00043e 9638      	ADIW R30,8
00043f 93fa      	ST   -Y,R31
000440 93ea      	ST   -Y,R30
000441 931a      	ST   -Y,R17
000442 930a      	ST   -Y,R16
000443 d007      	RCALL _FormatRTC
                 ;     320     PORTD = 0x00;
000444 e0e0      	LDI  R30,LOW(0)
000445 bbe2      	OUT  0x12,R30
                 ;     321     DDRD = 0x3F;  
000446 e3ef      	LDI  R30,LOW(63)
000447 bbe1      	OUT  0x11,R30
                 ;     322 }
000448 d8cf      	RCALL __LOADLOCR6
000449 96aa      	ADIW R28,42
00044a 9508      	RET
                 ;     323 
                 ;     324 void FormatRTC(PBYTE pBuffer, UINT nBuffSize)
                 ;     325 {                                                  
                 _FormatRTC:
                 ;     326     UINT i =0;
                 ;     327     BYTE code = 0;                                 
                 ;     328     PBYTE pBuffOut =(PBYTE)START_RAM + SCREEN_WIDTH;                    
                 ;     329 	for (i=0; i< nBuffSize; i++){		
00044b d8c6      	RCALL __SAVELOCR5
                 ;	*pBuffer -> Y+7
                 ;	nBuffSize -> Y+5
                 ;	i -> R16,R17
                 ;	code -> R18
                 ;	*pBuffOut -> R19,R20
00044c e000      	LDI  R16,0
00044d e010      	LDI  R17,0
00044e e020      	LDI  R18,0
00044f e638      	LDI  R19,LOW(0x568)
000450 e045      	LDI  R20,HIGH(0x568)
000451 e000
000452 e010      	__GETWRN 16,17,0
                 _0x33:
000453 81ed      	LDD  R30,Y+5
000454 81fe      	LDD  R31,Y+5+1
000455 170e      	CP   R16,R30
000456 071f      	CPC  R17,R31
000457 f538      	BRSH _0x34
                 ;     330 		code = pBuffer[nBuffSize- i-1];		
000458 1be0      	SUB  R30,R16
000459 0bf1      	SBC  R31,R17
00045a 9731      	SBIW R30,1
00045b 81af      	LDD  R26,Y+7
00045c 85b8      	LDD  R27,Y+7+1
00045d 0fae      	ADD  R26,R30
00045e 1fbf      	ADC  R27,R31
00045f 912c      	LD   R18,X
                 ;     331 		if (code >='0' && code <='9'){
000460 3320      	CPI  R18,48
000461 f010      	BRLO _0x36
000462 332a      	CPI  R18,58
000463 f008      	BRLO _0x37
                 _0x36:
000464 c002      	RJMP _0x35
                 _0x37:
                 ;     332 			code = code & 0x0F;
000465 702f      	ANDI R18,LOW(15)
                 ;     333 		}
                 ;     334 		else if (code ==' '){
000466 c00c      	RJMP _0x38
                 _0x35:
000467 3220      	CPI  R18,32
000468 f409      	BRNE _0x39
                 ;     335 			code = 0x0F;	// blank
000469 c008      	RJMP _0x114
                 ;     336 		}
                 ;     337 		else if (code =='-'){
                 _0x39:
00046a 322d      	CPI  R18,45
00046b f411      	BRNE _0x3B
                 ;     338 			code = 0x0A;	// dash
00046c e02a      	LDI  R18,LOW(10)
                 ;     339 		}
                 ;     340 		else if (code =='.'){
00046d c005      	RJMP _0x3C
                 _0x3B:
00046e 322e      	CPI  R18,46
00046f f411      	BRNE _0x3D
                 ;     341 			code = 0x0B;	// dot
000470 e02b      	LDI  R18,LOW(11)
                 ;     342 		}
                 ;     343 		else{
000471 c001      	RJMP _0x3E
                 _0x3D:
                 ;     344 			code = 0x0F;	// blank	
                 _0x114:
000472 e02f      	LDI  R18,LOW(15)
                 ;     345 		}
                 _0x3E:
                 _0x3C:
                 _0x38:
                 ;     346 		pBuffOut[i] = _xtable[code];
000473 01d8      	MOVW R26,R16
000474 0fa3      	ADD  R26,R19
000475 1fb4      	ADC  R27,R20
000476 2fe2      	MOV  R30,R18
000477 e0f0      	LDI  R31,0
000478 5cea      	SUBI R30,LOW(-__xtable)
000479 4ffe      	SBCI R31,HIGH(-__xtable)
00047a 81e0      	LD   R30,Z
00047b 93ec      	ST   X,R30
                 ;     347 	}
00047c 5f0f
00047d 4f1f      	__ADDWRN 16,17,1
00047e cfd4      	RJMP _0x33
                 _0x34:
                 ;     348 }
00047f d899      	RCALL __LOADLOCR5
000480 9629      	ADIW R28,9
000481 9508      	RET
                 ;     349 
                 ;     350 void SerialToRAM(PBYTE address,WORD length)                                             
                 ;     351 {
                 _SerialToRAM:
                 ;     352     PBYTE temp = 0;          
                 ;     353     UINT i =0;     				
                 ;     354     temp   = (PBYTE)address;    
000482 d890      	RCALL __SAVELOCR4
                 ;	*address -> Y+6
                 ;	length -> Y+4
                 ;	*temp -> R16,R17
                 ;	i -> R18,R19
000483 e000      	LDI  R16,LOW(0x00)
000484 e010      	LDI  R17,HIGH(0x00)
000485 e020      	LDI  R18,0
000486 e030      	LDI  R19,0
000487 810e
000488 811f      	__GETWRS 16,17,6
                 ;     355     LED_STATUS = 0;
000489 98c4      	CBI  0x18,4
                 ;     356     for (i =0; i< length; i++) {
00048a e020
00048b e030      	__GETWRN 18,19,0
                 _0x40:
00048c 81ec      	LDD  R30,Y+4
00048d 81fd      	LDD  R31,Y+4+1
00048e 172e      	CP   R18,R30
00048f 073f      	CPC  R19,R31
000490 f460      	BRSH _0x41
                 ;     357         *temp++ = getchar();
000491 931f      	PUSH R17
000492 930f      	PUSH R16
000493 5f0f
000494 4f1f      	__ADDWRN 16,17,1
000495 d4db      	RCALL _getchar
000496 91af      	POP  R26
000497 91bf      	POP  R27
000498 93ec      	ST   X,R30
                 ;     358         RESET_WATCHDOG();
000499 95a8      	WDR
                 ;     359     }                               
00049a 5f2f
00049b 4f3f      	__ADDWRN 18,19,1
00049c cfef      	RJMP _0x40
                 _0x41:
                 ;     360     LED_STATUS = 1;
00049d 9ac4      	SBI  0x18,4
                 ;     361 }
00049e d87b      	RCALL __LOADLOCR4
00049f 9628      	ADIW R28,8
0004a0 9508      	RET
                 ;     362 
                 ;     363 void GetCharWidth(WORD length)
                 ;     364 {                               
                 _GetCharWidth:
                 ;     365     UINT i =0;   
                 ;     366     BYTE devID = EEPROM_DEVICE_FONT;
                 ;     367     PBYTE base  = 0x0A;
                 ;     368     i2c_init();
0004a1 d870      	RCALL __SAVELOCR5
                 ;	length -> Y+5
                 ;	i -> R16,R17
                 ;	devID -> R18
                 ;	*base -> R19,R20
0004a2 e000      	LDI  R16,0
0004a3 e010      	LDI  R17,0
0004a4 ea20      	LDI  R18,160
0004a5 e03a      	LDI  R19,LOW(0x0A)
0004a6 e040      	LDI  R20,HIGH(0x0A)
0004a7 d711      	RCALL _i2c_init
                 ;     369     LED_STATUS = 0;              
0004a8 98c4      	CBI  0x18,4
                 ;     370 
                 ;     371     for (i =0; i < length; i++)
0004a9 e000
0004aa e010      	__GETWRN 16,17,0
                 _0x43:
0004ab 81ed      	LDD  R30,Y+5
0004ac 81fe      	LDD  R31,Y+5+1
0004ad 170e      	CP   R16,R30
0004ae 071f      	CPC  R17,R31
0004af f420      	BRSH _0x44
                 ;     372     {                           
                 ;     373         //char_width[i] = eeprom_read_w(devID,(PBYTE)base+(i<<1));    
                 ;     374         RESET_WATCHDOG();
0004b0 95a8      	WDR
                 ;     375     }                      
0004b1 5f0f
0004b2 4f1f      	__ADDWRN 16,17,1
0004b3 cff7      	RJMP _0x43
                 _0x44:
                 ;     376     LED_STATUS = 1;
0004b4 9ac4      	SBI  0x18,4
                 ;     377     PORTD = 0x00;
0004b5 e0e0      	LDI  R30,LOW(0)
0004b6 bbe2      	OUT  0x12,R30
                 ;     378     DDRD = 0x3F; 
0004b7 e3ef      	LDI  R30,LOW(63)
0004b8 bbe1      	OUT  0x11,R30
                 ;     379 }
0004b9 d85f      	RCALL __LOADLOCR5
0004ba 9627      	ADIW R28,7
0004bb 9508      	RET
                 ;     380 
                 ;     381 void SaveToEEPROM(PBYTE address, WORD length, BYTE index)
                 ;     382 {                             
                 _SaveToEEPROM:
                 ;     383     PBYTE temp = 0; 
                 ;     384     UINT i =0;     
                 ;     385     BYTE devID = EEPROM_DEVICE_DATA;      				
                 ;     386     temp   = address;   
0004bc d855      	RCALL __SAVELOCR5
                 ;	*address -> Y+8
                 ;	length -> Y+6
                 ;	index -> Y+5
                 ;	*temp -> R16,R17
                 ;	i -> R18,R19
                 ;	devID -> R20
0004bd e000      	LDI  R16,LOW(0x00)
0004be e010      	LDI  R17,HIGH(0x00)
0004bf e020      	LDI  R18,0
0004c0 e030      	LDI  R19,0
0004c1 ea42      	LDI  R20,162
0004c2 8508
0004c3 8519      	__GETWRS 16,17,8
                 ;     387     if (length%EEPROM_PAGE){
0004c4 81ee      	LDD  R30,Y+6
0004c5 81ff      	LDD  R31,Y+6+1
0004c6 73ef      	ANDI R30,LOW(0x3F)
0004c7 f059      	BREQ _0x45
                 ;     388         length = EEPROM_PAGE*(length/EEPROM_PAGE) + EEPROM_PAGE;        
0004c8 81ae      	LDD  R26,Y+6
0004c9 81bf      	LDD  R27,Y+6+1
0004ca e4e0      	LDI  R30,LOW(64)
0004cb e0f0      	LDI  R31,HIGH(64)
0004cc d808      	RCALL __DIVW21U
0004cd d7f0      	RCALL __LSLW2
0004ce d7eb      	RCALL __LSLW4
0004cf 5ce0      	SUBI R30,LOW(-64)
0004d0 4fff      	SBCI R31,HIGH(-64)
0004d1 83ee      	STD  Y+6,R30
0004d2 83ff      	STD  Y+6+1,R31
                 ;     389     }                         
                 ;     390     i2c_init();
                 _0x45:
0004d3 d6e5      	RCALL _i2c_init
                 ;     391     LED_STATUS = 0;         
0004d4 98c4      	CBI  0x18,4
                 ;     392     for (i=0; i < length; i++) {           
0004d5 e020
0004d6 e030      	__GETWRN 18,19,0
                 _0x47:
0004d7 81ee      	LDD  R30,Y+6
0004d8 81ff      	LDD  R31,Y+6+1
0004d9 172e      	CP   R18,R30
0004da 073f      	CPC  R19,R31
0004db f4a0      	BRSH _0x48
                 ;     393         eeprom_write( devID, (PBYTE)temp+ index*PAGE_SIZE, (BYTE)(*temp));	                             
0004dc 934a      	ST   -Y,R20
0004dd 81ee      	LDD  R30,Y+6
0004de e0f0      	LDI  R31,0
0004df e8a0      	LDI  R26,LOW(384)
0004e0 e0b1      	LDI  R27,HIGH(384)
0004e1 d7e6      	RCALL __MULW12U
0004e2 0fe0      	ADD  R30,R16
0004e3 1ff1      	ADC  R31,R17
0004e4 93fa      	ST   -Y,R31
0004e5 93ea      	ST   -Y,R30
0004e6 01d8      	MOVW R26,R16
0004e7 91ec      	LD   R30,X
0004e8 93ea      	ST   -Y,R30
0004e9 d412      	RCALL _eeprom_write
                 ;     394         RESET_WATCHDOG();                                                       
0004ea 95a8      	WDR
                 ;     395         temp++;
0004eb 5f0f
0004ec 4f1f      	__ADDWRN 16,17,1
                 ;     396     }                       
0004ed 5f2f
0004ee 4f3f      	__ADDWRN 18,19,1
0004ef cfe7      	RJMP _0x47
                 _0x48:
                 ;     397     LED_STATUS = 1;
0004f0 9ac4      	SBI  0x18,4
                 ;     398     PORTD = 0x00;
0004f1 e0e0      	LDI  R30,LOW(0)
0004f2 bbe2      	OUT  0x12,R30
                 ;     399     DDRD = 0x3F;    
0004f3 e3ef      	LDI  R30,LOW(63)
0004f4 bbe1      	OUT  0x11,R30
                 ;     400 }
0004f5 c00e      	RJMP _0x10B
                 ;     401                       
                 ;     402 void LoadToRAM(PBYTE address, WORD length, BYTE index)
                 ;     403 {                         
                 _LoadToRAM:
                 ;     404     PBYTE temp = 0;  
                 ;     405     UINT i=0;         
                 ;     406     BYTE devID = EEPROM_DEVICE_DATA;		
                 ;     407     temp   = address;                     
0004f6 d81b      	RCALL __SAVELOCR5
                 ;	*address -> Y+8
                 ;	length -> Y+6
                 ;	index -> Y+5
                 ;	*temp -> R16,R17
                 ;	i -> R18,R19
                 ;	devID -> R20
0004f7 e000      	LDI  R16,LOW(0x00)
0004f8 e010      	LDI  R17,HIGH(0x00)
0004f9 e020      	LDI  R18,0
0004fa e030      	LDI  R19,0
0004fb ea42      	LDI  R20,162
0004fc 8508
0004fd 8519      	__GETWRS 16,17,8
                 ;     408     if (length > DATA_LENGTH)    
0004fe 81ae      	LDD  R26,Y+6
0004ff 81bf      	LDD  R27,Y+6+1
000500 3fa9      	CPI  R26,LOW(0xEF9)
000501 e0ee      	LDI  R30,HIGH(0xEF9)
000502 07be      	CPC  R27,R30
000503 f018      	BRLO _0x49
                 ;     409         return; // invalid param
                 _0x10B:
000504 d814      	RCALL __LOADLOCR5
000505 962a      	ADIW R28,10
000506 9508      	RET
                 ;     410     if (length%EEPROM_PAGE){
                 _0x49:
000507 81ee      	LDD  R30,Y+6
000508 81ff      	LDD  R31,Y+6+1
000509 73ef      	ANDI R30,LOW(0x3F)
00050a f059      	BREQ _0x4A
                 ;     411         length = EEPROM_PAGE*(length/EEPROM_PAGE) + EEPROM_PAGE;        
00050b 81ae      	LDD  R26,Y+6
00050c 81bf      	LDD  R27,Y+6+1
00050d e4e0      	LDI  R30,LOW(64)
00050e e0f0      	LDI  R31,HIGH(64)
00050f d7c5      	RCALL __DIVW21U
000510 d7ad      	RCALL __LSLW2
000511 d7a8      	RCALL __LSLW4
000512 5ce0      	SUBI R30,LOW(-64)
000513 4fff      	SBCI R31,HIGH(-64)
000514 83ee      	STD  Y+6,R30
000515 83ff      	STD  Y+6+1,R31
                 ;     412     }
                 ;     413     i2c_init();
                 _0x4A:
000516 d6a2      	RCALL _i2c_init
                 ;     414     LED_STATUS = 0;             
000517 98c4      	CBI  0x18,4
                 ;     415     for (i =0; i <length; i+= EEPROM_PAGE) {                                 
000518 e020
000519 e030      	__GETWRN 18,19,0
                 _0x4C:
00051a 81ee      	LDD  R30,Y+6
00051b 81ff      	LDD  R31,Y+6+1
00051c 172e      	CP   R18,R30
00051d 073f      	CPC  R19,R31
00051e f4a8      	BRSH _0x4D
                 ;     416         eeprom_read_page( devID, (PBYTE)temp+ index*PAGE_SIZE, temp, EEPROM_PAGE );        
00051f 934a      	ST   -Y,R20
000520 81ee      	LDD  R30,Y+6
000521 e0f0      	LDI  R31,0
000522 e8a0      	LDI  R26,LOW(384)
000523 e0b1      	LDI  R27,HIGH(384)
000524 d7a3      	RCALL __MULW12U
000525 0fe0      	ADD  R30,R16
000526 1ff1      	ADC  R31,R17
000527 93fa      	ST   -Y,R31
000528 93ea      	ST   -Y,R30
000529 931a      	ST   -Y,R17
00052a 930a      	ST   -Y,R16
00052b e4e0      	LDI  R30,LOW(64)
00052c 93ea      	ST   -Y,R30
00052d d408      	RCALL _eeprom_read_page
                 ;     417         temp += EEPROM_PAGE;                                
00052e 5c00
00052f 4f1f      	__ADDWRN 16,17,64
                 ;     418         RESET_WATCHDOG();     
000530 95a8      	WDR
                 ;     419     }   
000531 5c20
000532 4f3f      	__ADDWRN 18,19,64
000533 cfe6      	RJMP _0x4C
                 _0x4D:
                 ;     420     LED_STATUS = 1; 
000534 9ac4      	SBI  0x18,4
                 ;     421     PORTD = 0x00;
000535 e0e0      	LDI  R30,LOW(0)
000536 bbe2      	OUT  0x12,R30
                 ;     422     DDRD = 0x3F;  
000537 e3ef      	LDI  R30,LOW(63)
000538 bbe1      	OUT  0x11,R30
                 ;     423 }
000539 d7df      	RCALL __LOADLOCR5
00053a 962a      	ADIW R28,10
00053b 9508      	RET
                 ;     424 
                 ;     425 void LoadConfig(BYTE index)
                 ;     426 {   
                 _LoadConfig:
                 ;     427     BYTE devID = EEPROM_DEVICE_DATA;
                 ;     428     i2c_init();
00053c 930a      	ST   -Y,R16
                 ;	index -> Y+1
                 ;	devID -> R16
00053d ea02      	LDI  R16,162
00053e d67a      	RCALL _i2c_init
                 ;     429     LED_STATUS = 1;                               
00053f 9ac4      	SBI  0x18,4
                 ;     430     scroll_rate = eeprom_read(devID,(PBYTE)index);     
000540 930a      	ST   -Y,R16
000541 81ea      	LDD  R30,Y+2
000542 e0f0      	LDI  R31,0
000543 93fa      	ST   -Y,R31
000544 93ea      	ST   -Y,R30
000545 d39b      	RCALL _eeprom_read
000546 93e0 00cc 	STS  _scroll_rate_G1,R30
                 ;     431 #ifdef __TEST_LED_
                 ;     432     scroll_rate = 10;
                 ;     433 #endif
                 ;     434 #ifdef __DUMP_LED_
                 ;     435     printf("line=%d rate=%d\r\n",index,scroll_rate);    
000548 e5e7
000549 e0f1      	__POINTW1FN _0,205
00054a 93fa      	ST   -Y,R31
00054b 93ea      	ST   -Y,R30
00054c 81eb      	LDD  R30,Y+3
00054d 27ff      	CLR  R31
00054e 2766      	CLR  R22
00054f 2777      	CLR  R23
000550 d7bb      	RCALL __PUTPARD1
000551 91e0 00cc 	LDS  R30,_scroll_rate_G1
000553 27ff      	CLR  R31
000554 2766      	CLR  R22
000555 2777      	CLR  R23
000556 d7b5      	RCALL __PUTPARD1
000557 e088      	LDI  R24,8
000558 d5ae      	RCALL _printf
000559 962a      	ADIW R28,10
                 ;     436 #endif
                 ;     437     LED_STATUS = 0; 
00055a 98c4      	CBI  0x18,4
                 ;     438     PORTD = 0x00;
00055b e0e0      	LDI  R30,LOW(0)
00055c bbe2      	OUT  0x12,R30
                 ;     439     DDRD = 0x3F;   
00055d e3ef      	LDI  R30,LOW(63)
00055e bbe1      	OUT  0x11,R30
                 ;     440 }
00055f c012      	RJMP _0x10A
                 ;     441 
                 ;     442 void SaveConfig(BYTE index)
                 ;     443 {     
                 _SaveConfig:
                 ;     444     BYTE devID = EEPROM_DEVICE_DATA;
                 ;     445     i2c_init();
000560 930a      	ST   -Y,R16
                 ;	index -> Y+1
                 ;	devID -> R16
000561 ea02      	LDI  R16,162
000562 d656      	RCALL _i2c_init
                 ;     446     LED_STATUS = 1;  
000563 9ac4      	SBI  0x18,4
                 ;     447     eeprom_write(devID,(PBYTE)index,scroll_rate);   
000564 930a      	ST   -Y,R16
000565 81ea      	LDD  R30,Y+2
000566 e0f0      	LDI  R31,0
000567 93fa      	ST   -Y,R31
000568 93ea      	ST   -Y,R30
000569 91e0 00cc 	LDS  R30,_scroll_rate_G1
00056b 93ea      	ST   -Y,R30
00056c d38f      	RCALL _eeprom_write
                 ;     448     LED_STATUS = 0; 
00056d 98c4      	CBI  0x18,4
                 ;     449     PORTD = 0x00;
00056e e0e0      	LDI  R30,LOW(0)
00056f bbe2      	OUT  0x12,R30
                 ;     450     DDRD = 0x3F;   
000570 e3ef      	LDI  R30,LOW(63)
000571 bbe1      	OUT  0x11,R30
                 ;     451 }
                 _0x10A:
000572 8108      	LDD  R16,Y+0
000573 9622      	ADIW R28,2
000574 9508      	RET
                 ;     452 
                 ;     453 void BlankRAM(PBYTE start_addr,PBYTE end_addr)
                 ;     454 {        
                 _BlankRAM:
                 ;     455     PBYTE temp = START_RAM;
                 ;     456     for (temp = start_addr; temp<= end_addr; temp++)    
000575 d79f      	RCALL __SAVELOCR2
                 ;	*start_addr -> Y+4
                 ;	*end_addr -> Y+2
                 ;	*temp -> R16,R17
000576 e000      	LDI  R16,LOW(0x500)
000577 e015      	LDI  R17,HIGH(0x500)
000578 810c
000579 811d      	__GETWRS 16,17,4
                 _0x4F:
00057a 81ea      	LDD  R30,Y+2
00057b 81fb      	LDD  R31,Y+2+1
00057c 17e0      	CP   R30,R16
00057d 07f1      	CPC  R31,R17
00057e f030      	BRLO _0x50
                 ;     457         *temp = 0xFF;             
00057f 01d8      	MOVW R26,R16
000580 efef      	LDI  R30,LOW(255)
000581 93ec      	ST   X,R30
                 ;     458 }
000582 5f0f
000583 4f1f      	__ADDWRN 16,17,1
000584 cff5      	RJMP _0x4F
                 _0x50:
000585 d796      	RCALL __LOADLOCR2
000586 9626      	ADIW R28,6
000587 9508      	RET
                 ;     459 
                 ;     460 void SetRTCDateTime()
                 ;     461 {
                 _SetRTCDateTime:
                 ;     462     i2c_init();
000588 d630      	RCALL _i2c_init
                 ;     463     LED_STATUS = 0;   
000589 98c4      	CBI  0x18,4
                 ;     464     rtc_set_time(0,0,0);    /* clear CH bit */
00058a e0e0      	LDI  R30,LOW(0)
00058b 93ea      	ST   -Y,R30
00058c 93ea      	ST   -Y,R30
00058d 93ea      	ST   -Y,R30
00058e d5d3      	RCALL _rtc_set_time
                 ;     465     rtc_set_date(getchar(),getchar(),getchar());
00058f d3e1      	RCALL _getchar
000590 93ea      	ST   -Y,R30
000591 d3df      	RCALL _getchar
000592 93ea      	ST   -Y,R30
000593 d3dd      	RCALL _getchar
000594 93ea      	ST   -Y,R30
000595 d60a      	RCALL _rtc_set_date
                 ;     466     rtc_set_time(getchar(),getchar(),getchar());    
000596 d3da      	RCALL _getchar
000597 93ea      	ST   -Y,R30
000598 d3d8      	RCALL _getchar
000599 93ea      	ST   -Y,R30
00059a d3d6      	RCALL _getchar
00059b 93ea      	ST   -Y,R30
00059c d5c5      	RCALL _rtc_set_time
                 ;     467     LED_STATUS = 1;
00059d 9ac4      	SBI  0x18,4
                 ;     468     PORTD = 0x00;
00059e e0e0      	LDI  R30,LOW(0)
00059f bbe2      	OUT  0x12,R30
                 ;     469     DDRD = 0x3F; 
0005a0 e3ef      	LDI  R30,LOW(63)
0005a1 bbe1      	OUT  0x11,R30
                 ;     470 }
0005a2 9508      	RET
                 ;     471 
                 ;     472 static void TextFromFont(char *szText, BYTE nColor, BYTE bGradient, PBYTE pBuffer, BYTE index)
                 ;     473 {
                 _TextFromFont_G1:
                 ;     474 	int pos = 0,x=0,y=0;     
                 ;     475 	BYTE i =0, len;
                 ;     476 	BYTE ch = 0;
                 ;     477 	UINT nWidth = 0;   
                 ;     478 	UINT nCurWidth = 0, nNxtWidth = 0;		
                 ;     479     BYTE mask = 0x00, data = 0;
                 ;     480 	BYTE mask_clr[2] = {0x00};
                 ;     481     BYTE devID = EEPROM_DEVICE_FONT;
                 ;     482     	
                 ;     483 	switch (nColor)
0005a3 972e      	SBIW R28,14
0005a4 e08e      	LDI  R24,14
0005a5 e0a0      	LDI  R26,LOW(0)
0005a6 e0b0      	LDI  R27,HIGH(0)
0005a7 e5e0      	LDI  R30,LOW(_0x51*2)
0005a8 e0f0      	LDI  R31,HIGH(_0x51*2)
0005a9 d778      	RCALL __INITLOCB
0005aa d766      	RCALL __SAVELOCR6
                 ;	*szText -> Y+25
                 ;	nColor -> Y+24
                 ;	bGradient -> Y+23
                 ;	*pBuffer -> Y+21
                 ;	index -> Y+20
                 ;	pos -> R16,R17
                 ;	x -> R18,R19
                 ;	y -> R20,R21
                 ;	i -> Y+19
                 ;	len -> Y+18
                 ;	ch -> Y+17
                 ;	nWidth -> Y+15
                 ;	nCurWidth -> Y+13
                 ;	nNxtWidth -> Y+11
                 ;	mask -> Y+10
                 ;	data -> Y+9
                 ;	mask_clr -> Y+7
                 ;	devID -> Y+6
0005ab e000      	LDI  R16,0
0005ac e010      	LDI  R17,0
0005ad e020      	LDI  R18,0
0005ae e030      	LDI  R19,0
0005af e040      	LDI  R20,0
0005b0 e050      	LDI  R21,0
0005b1 8de8      	LDD  R30,Y+24
                 ;     484 	{
                 ;     485 	case 0:
0005b2 30e0      	CPI  R30,0
0005b3 f429      	BRNE _0x55
                 ;     486 		mask = 0xFF;		// BLANK
0005b4 efef      	LDI  R30,LOW(255)
0005b5 87ea      	STD  Y+10,R30
                 ;     487 		mask_clr[0] = 0xFF;
0005b6 83ef      	STD  Y+7,R30
                 ;     488 		mask_clr[1] = 0xFF;
0005b7 87e8      	STD  Y+8,R30
                 ;     489 		break;
0005b8 c01a      	RJMP _0x54
                 ;     490 	case 1:
                 _0x55:
0005b9 30e1      	CPI  R30,LOW(0x1)
0005ba f439      	BRNE _0x56
                 ;     491 		mask = 0xAA;		// RED			RRRR	
0005bb eaea      	LDI  R30,LOW(170)
0005bc 87ea      	STD  Y+10,R30
                 ;     492 		mask_clr[0] = 0x99;	// GREEN		RGRG
0005bd e9e9      	LDI  R30,LOW(153)
0005be 83ef      	STD  Y+7,R30
                 ;     493 		mask_clr[1] = 0x88;	// YELLOW		RYRY
0005bf e8e8      	LDI  R30,LOW(136)
0005c0 87e8      	STD  Y+8,R30
                 ;     494 		break;
0005c1 c011      	RJMP _0x54
                 ;     495 	case 2:
                 _0x56:
0005c2 30e2      	CPI  R30,LOW(0x2)
0005c3 f439      	BRNE _0x57
                 ;     496 		mask = 0x55;		// GREEN		GGGG
0005c4 e5e5      	LDI  R30,LOW(85)
0005c5 87ea      	STD  Y+10,R30
                 ;     497 		mask_clr[0] = 0x44;	// YELLOW		GYGY
0005c6 e4e4      	LDI  R30,LOW(68)
0005c7 83ef      	STD  Y+7,R30
                 ;     498 		mask_clr[1] = 0x66;	// RED			GRGR	
0005c8 e6e6      	LDI  R30,LOW(102)
0005c9 87e8      	STD  Y+8,R30
                 ;     499 		break;
0005ca c008      	RJMP _0x54
                 ;     500 	case 3:
                 _0x57:
0005cb 30e3      	CPI  R30,LOW(0x3)
0005cc f431      	BRNE _0x59
                 ;     501 		mask = 0x00;		// YELLOW		YYYY
0005cd e0e0      	LDI  R30,LOW(0)
0005ce 87ea      	STD  Y+10,R30
                 ;     502 		mask_clr[0] = 0x22;	// RED			YRYR	
0005cf e2e2      	LDI  R30,LOW(34)
0005d0 83ef      	STD  Y+7,R30
                 ;     503 		mask_clr[1] = 0x11;	// GREEN		YGYG
0005d1 e1e1      	LDI  R30,LOW(17)
0005d2 87e8      	STD  Y+8,R30
                 ;     504 		break;
                 ;     505 	default:
                 _0x59:
                 ;     506 		break;
                 ;     507 	}	
                 _0x54:
                 ;     508                                
                 ;     509 	LED_STATUS = 0;
0005d3 98c4      	CBI  0x18,4
                 ;     510 	i2c_init();
0005d4 d5e4      	RCALL _i2c_init
                 ;     511 	len = strlen(szText);      
0005d5 8de9      	LDD  R30,Y+25
0005d6 8dfa      	LDD  R31,Y+25+1
0005d7 93fa      	ST   -Y,R31
0005d8 93ea      	ST   -Y,R30
0005d9 d631      	RCALL _strlen
0005da 8bea      	STD  Y+18,R30
                 ;     512 	if (len > MAX_TITLE){
0005db 89aa      	LDD  R26,Y+18
0005dc 31a5      	CPI  R26,LOW(0x15)
0005dd f010      	BRLO _0x5A
                 ;     513 	    len = MAX_TITLE;
0005de e1e4      	LDI  R30,LOW(20)
0005df 8bea      	STD  Y+18,R30
                 ;     514 	}
                 ;     515 	for (i=0; i< len; i++){				                                     
                 _0x5A:
0005e0 e0e0      	LDI  R30,LOW(0)
0005e1 8beb      	STD  Y+19,R30
                 _0x5C:
0005e2 89ea      	LDD  R30,Y+18
0005e3 89ab      	LDD  R26,Y+19
0005e4 17ae      	CP   R26,R30
0005e5 f008      	BRLO PC+2
0005e6 c08f      	RJMP _0x5D
                 ;     516         ch = szText[i];             
0005e7 89eb      	LDD  R30,Y+19
0005e8 8da9      	LDD  R26,Y+25
0005e9 8dba      	LDD  R27,Y+25+1
0005ea e0f0      	LDI  R31,0
0005eb 0fae      	ADD  R26,R30
0005ec 1fbf      	ADC  R27,R31
0005ed 91ec      	LD   R30,X
0005ee 8be9      	STD  Y+17,R30
                 ;     517 		//nCurWidth = char_width[ch];
                 ;     518 		//nNxtWidth = char_width[ch+1];    		
                 ;     519 		nCurWidth = eeprom_read_w(devID,(PBYTE)0x0A+(ch<<1));    
0005ef 81ee      	LDD  R30,Y+6
0005f0 93ea      	ST   -Y,R30
0005f1 89ea      	LDD  R30,Y+18
0005f2 0fee      	LSL  R30
0005f3 e0aa      	LDI  R26,LOW(10)
0005f4 e0b0      	LDI  R27,HIGH(10)
0005f5 e0f0      	LDI  R31,0
0005f6 0fea      	ADD  R30,R26
0005f7 1ffb      	ADC  R31,R27
0005f8 93fa      	ST   -Y,R31
0005f9 93ea      	ST   -Y,R30
0005fa d319      	RCALL _eeprom_read_w
0005fb 87ed      	STD  Y+13,R30
0005fc 87fe      	STD  Y+13+1,R31
                 ;     520 		nNxtWidth = eeprom_read_w(devID,(PBYTE)0x0A+((ch+1)<<1));    
0005fd 81ee      	LDD  R30,Y+6
0005fe 93ea      	ST   -Y,R30
0005ff 89aa      	LDD  R26,Y+18
000600 5faf      	SUBI R26,-LOW(1)
000601 2fea      	MOV  R30,R26
000602 0fee      	LSL  R30
000603 e0aa      	LDI  R26,LOW(10)
000604 e0b0      	LDI  R27,HIGH(10)
000605 e0f0      	LDI  R31,0
000606 0fea      	ADD  R30,R26
000607 1ffb      	ADC  R31,R27
000608 93fa      	ST   -Y,R31
000609 93ea      	ST   -Y,R30
00060a d309      	RCALL _eeprom_read_w
00060b 87eb      	STD  Y+11,R30
00060c 87fc      	STD  Y+11+1,R31
                 ;     521 		nWidth = (nNxtWidth - nCurWidth); 		
00060d 85ad      	LDD  R26,Y+13
00060e 85be      	LDD  R27,Y+13+1
00060f 1bea      	SUB  R30,R26
000610 0bfb      	SBC  R31,R27
000611 87ef      	STD  Y+15,R30
000612 8bf8      	STD  Y+15+1,R31
                 ;     522 		if ((pos + nWidth) >= SCREEN_WIDTH)  break;		
000613 0fe0      	ADD  R30,R16
000614 1ff1      	ADC  R31,R17
000615 36e8      	CPI  R30,LOW(0x68)
000616 e0a0      	LDI  R26,HIGH(0x68)
000617 07fa      	CPC  R31,R26
000618 f008      	BRLO _0x5E
000619 c05c      	RJMP _0x5D
                 ;     523 		for (y=0; y< 8 ; y++){    		            
                 _0x5E:
00061a e040
00061b e050      	__GETWRN 20,21,0
                 _0x60:
00061c 3048
00061d e0e0
00061e 075e      	__CPWRN 20,21,8
00061f f00c      	BRLT PC+2
000620 c04d      	RJMP _0x61
                 ;     524 		    if (bGradient) {
000621 89ef      	LDD  R30,Y+23
000622 30e0      	CPI  R30,0
000623 f0a9      	BREQ _0x62
                 ;     525 				if (y >=0 && y <4)	mask = mask_clr[0];
000624 5040      	SUBI R20,0
000625 4050      	SBCI R21,0
000626 f024      	BRLT _0x64
000627 3044
000628 e0e0
000629 075e      	__CPWRN 20,21,4
00062a f00c      	BRLT _0x65
                 _0x64:
00062b c002      	RJMP _0x63
                 _0x65:
00062c 81ef      	LDD  R30,Y+7
00062d 87ea      	STD  Y+10,R30
                 ;     526 				if (y >=4 && y <8)	mask = mask_clr[1];	
                 _0x63:
00062e 3044
00062f e0e0
000630 075e      	__CPWRN 20,21,4
000631 f024      	BRLT _0x67
000632 3048
000633 e0e0
000634 075e      	__CPWRN 20,21,8
000635 f00c      	BRLT _0x68
                 _0x67:
000636 c002      	RJMP _0x66
                 _0x68:
000637 85e8      	LDD  R30,Y+8
000638 87ea      	STD  Y+10,R30
                 ;     527 			}			
                 _0x66:
                 ;     528 			for (x=0; x< nWidth; x++){                                 
                 _0x62:
000639 e020
00063a e030      	__GETWRN 18,19,0
                 _0x6A:
00063b 85ef      	LDD  R30,Y+15
00063c 89f8      	LDD  R31,Y+15+1
00063d 172e      	CP   R18,R30
00063e 073f      	CPC  R19,R31
00063f f558      	BRSH _0x6B
                 ;     529 			    RESET_WATCHDOG();       
000640 95a8      	WDR
                 ;     530 			    data = eeprom_read(devID, (PBYTE)(START_RAM + 8*SCREEN_WIDTH + SCREEN_WIDTH) + (y*DATA_LENGTH + nCurWidth + x));
000641 81ee      	LDD  R30,Y+6
000642 93ea      	ST   -Y,R30
000643 01da      	MOVW R26,R20
000644 efe8      	LDI  R30,LOW(3832)
000645 e0fe      	LDI  R31,HIGH(3832)
000646 d689      	RCALL __MULW12
000647 85ae      	LDD  R26,Y+14
000648 85bf      	LDD  R27,Y+14+1
000649 0fea      	ADD  R30,R26
00064a 1ffb      	ADC  R31,R27
00064b 0fe2      	ADD  R30,R18
00064c 1ff3      	ADC  R31,R19
00064d 55e8      	SUBI R30,LOW(-2216)
00064e 4ff7      	SBCI R31,HIGH(-2216)
00064f 93fa      	ST   -Y,R31
000650 93ea      	ST   -Y,R30
000651 d28f      	RCALL _eeprom_read
000652 87e9      	STD  Y+9,R30
                 ;     531 			    data = (~data) & (~mask); 
000653 95e0      	COM  R30
000654 2fae      	MOV  R26,R30
000655 85ea      	LDD  R30,Y+10
000656 95e0      	COM  R30
000657 23ea      	AND  R30,R26
000658 87e9      	STD  Y+9,R30
                 ;     532    				pBuffer[y*DATA_LENGTH + x + pos] = ~data;   				
000659 01da      	MOVW R26,R20
00065a efe8      	LDI  R30,LOW(3832)
00065b e0fe      	LDI  R31,HIGH(3832)
00065c d673      	RCALL __MULW12
00065d 0fe2      	ADD  R30,R18
00065e 1ff3      	ADC  R31,R19
00065f 0fe0      	ADD  R30,R16
000660 1ff1      	ADC  R31,R17
000661 89ad      	LDD  R26,Y+21
000662 89be      	LDD  R27,Y+21+1
000663 0fae      	ADD  R26,R30
000664 1fbf      	ADC  R27,R31
000665 85e9      	LDD  R30,Y+9
000666 95e0      	COM  R30
000667 93ec      	ST   X,R30
                 ;     533 			}					
000668 5f2f
000669 4f3f      	__ADDWRN 18,19,1
00066a cfd0      	RJMP _0x6A
                 _0x6B:
                 ;     534 		}
00066b 5f4f
00066c 4f5f      	__ADDWRN 20,21,1
00066d cfae      	RJMP _0x60
                 _0x61:
                 ;     535 		pos += nWidth;	 		
00066e 85ef      	LDD  R30,Y+15
00066f 89f8      	LDD  R31,Y+15+1
000670 0f0e
000671 1f1f      	__ADDWRR 16,17,30,31
                 ;     536 	}
000672 89eb      	LDD  R30,Y+19
000673 5fef      	SUBI R30,-LOW(1)
000674 8beb      	STD  Y+19,R30
000675 cf6c      	RJMP _0x5C
                 _0x5D:
                 ;     537     
                 ;     538     text_length = pos;    
000676 9300 00d0
000678 9310 00d1 	__PUTWMRN _text_length_G1,0,16,17
                 ;     539     LED_STATUS = 1;
00067a 9ac4      	SBI  0x18,4
                 ;     540     PORTD = 0x00;
00067b e0e0      	LDI  R30,LOW(0)
00067c bbe2      	OUT  0x12,R30
                 ;     541     DDRD = 0x3F;     
00067d e3ef      	LDI  R30,LOW(63)
00067e bbe1      	OUT  0x11,R30
                 ;     542 }
00067f d698      	RCALL __LOADLOCR6
000680 966b      	ADIW R28,27
000681 9508      	RET
                 ;     543         
                 ;     544 void LoadPage()
                 ;     545 {                         
                 _LoadPage:
                 ;     546     if (++page_index >= MAX_PAGE){
000682 91a0 00cd 	LDS  R26,_page_index_G1
000684 5faf      	SUBI R26,-LOW(1)
000685 93a0 00cd 	STS  _page_index_G1,R26
000687 30a5      	CPI  R26,LOW(0x5)
000688 f018      	BRLO _0x6C
                 ;     547         page_index = 0;
000689 e0e0      	LDI  R30,LOW(0)
00068a 93e0 00cd 	STS  _page_index_G1,R30
                 ;     548     }                   
                 ;     549     _powerOff();          
                 _0x6C:
00068c db6a      	RCALL __powerOff_G1
                 ;     550     LoadConfig(page_index);       
00068d 91e0 00cd 	LDS  R30,_page_index_G1
00068f 93ea      	ST   -Y,R30
000690 deab      	RCALL _LoadConfig
                 ;     551     if (scroll_rate ==0){
000691 91e0 00cc 	LDS  R30,_scroll_rate_G1
000693 30e0      	CPI  R30,0
000694 f409      	BRNE _0x6D
                 ;     552         return;
000695 9508      	RET
                 ;     553     } 
                 ;     554     BlankRAM((PBYTE)START_RAM,(PBYTE)END_RAM);                
                 _0x6D:
000696 e0e0      	LDI  R30,LOW(1280)
000697 e0f5      	LDI  R31,HIGH(1280)
000698 93fa      	ST   -Y,R31
000699 93ea      	ST   -Y,R30
00069a efef      	LDI  R30,LOW(32767)
00069b e7ff      	LDI  R31,HIGH(32767)
00069c 93fa      	ST   -Y,R31
00069d 93ea      	ST   -Y,R30
00069e ded6      	RCALL _BlankRAM
                 ;     555     LoadToRAM((PBYTE)START_RAM+SCREEN_WIDTH,PAGE_SIZE,page_index);                 
00069f e6e8      	LDI  R30,LOW(1384)
0006a0 e0f5      	LDI  R31,HIGH(1384)
0006a1 93fa      	ST   -Y,R31
0006a2 93ea      	ST   -Y,R30
0006a3 e8e0      	LDI  R30,LOW(384)
0006a4 e0f1      	LDI  R31,HIGH(384)
0006a5 93fa      	ST   -Y,R31
0006a6 93ea      	ST   -Y,R30
0006a7 91e0 00cd 	LDS  R30,_page_index_G1
0006a9 93ea      	ST   -Y,R30
0006aa de4b      	RCALL _LoadToRAM
                 ;     556     GetCharWidth(255);                                            
0006ab efef      	LDI  R30,LOW(255)
0006ac e0f0      	LDI  R31,HIGH(255)
0006ad 93fa      	ST   -Y,R31
0006ae 93ea      	ST   -Y,R30
0006af ddf1      	RCALL _GetCharWidth
                 ;     557 #ifndef __OWN_TITLE_
                 ;     558     TextFromFont((char*)szTitle[page_index],1,0,(PBYTE)START_RAM,0);
                 ;     559 #else
                 ;     560     TextFromFont((char*)(START_RAM+SCREEN_WIDTH+MAX_LED),1,0,(PBYTE)START_RAM,0);     
0006b0 eae5      	LDI  R30,LOW(1701)
0006b1 e0f6      	LDI  R31,HIGH(1701)
0006b2 93fa      	ST   -Y,R31
0006b3 93ea      	ST   -Y,R30
0006b4 e0e1      	LDI  R30,LOW(1)
0006b5 93ea      	ST   -Y,R30
0006b6 e0e0      	LDI  R30,LOW(0)
0006b7 93ea      	ST   -Y,R30
0006b8 e0e0      	LDI  R30,LOW(1280)
0006b9 e0f5      	LDI  R31,HIGH(1280)
0006ba 93fa      	ST   -Y,R31
0006bb 93ea      	ST   -Y,R30
0006bc 93ea      	ST   -Y,R30
0006bd dee5      	RCALL _TextFromFont_G1
                 ;     561 #endif                                                  
                 ;     562     GetRTCBuffer();
0006be dc8c      	RCALL _GetRTCBuffer
                 ;     563     _displayLED();                  
0006bf db45      	RCALL __displayLED_G1
                 ;     564         
                 ;     565 #ifdef __DUMP_LED_     
                 ;     566 {         
                 ;     567     UINT i=0;
                 ;     568     PBYTE temp = 0;
                 ;     569     temp   =(PBYTE)START_RAM+SCREEN_WIDTH;
0006c0 9724      	SBIW R28,4
0006c1 e084      	LDI  R24,4
0006c2 e0a0      	LDI  R26,LOW(0)
0006c3 e0b0      	LDI  R27,HIGH(0)
0006c4 e5ee      	LDI  R30,LOW(_0x6E*2)
0006c5 e0f0      	LDI  R31,HIGH(_0x6E*2)
0006c6 d65b      	RCALL __INITLOCB
                 ;	i -> Y+2
                 ;	*temp -> Y+0
0006c7 e6e8      	LDI  R30,LOW(1384)
0006c8 e0f5      	LDI  R31,HIGH(1384)
0006c9 83e8      	ST   Y,R30
0006ca 83f9      	STD  Y+1,R31
                 ;     570     for (i =0; i <MAX_LED; i++) {
0006cb e0e0      	LDI  R30,0
0006cc 83ea      	STD  Y+2,R30
0006cd 83eb      	STD  Y+2+1,R30
                 _0x70:
0006ce 81aa      	LDD  R26,Y+2
0006cf 81bb      	LDD  R27,Y+2+1
0006d0 33ad      	CPI  R26,LOW(0x13D)
0006d1 e0e1      	LDI  R30,HIGH(0x13D)
0006d2 07be      	CPC  R27,R30
0006d3 f4c8      	BRSH _0x71
                 ;     571         printf("%02X ",*temp);
0006d4 e6e9
0006d5 e0f1      	__POINTW1FN _0,223
0006d6 93fa      	ST   -Y,R31
0006d7 93ea      	ST   -Y,R30
0006d8 81aa      	LDD  R26,Y+2
0006d9 81bb      	LDD  R27,Y+2+1
0006da 91ec      	LD   R30,X
0006db 27ff      	CLR  R31
0006dc 2766      	CLR  R22
0006dd 2777      	CLR  R23
0006de d62d      	RCALL __PUTPARD1
0006df e084      	LDI  R24,4
0006e0 d426      	RCALL _printf
0006e1 9626      	ADIW R28,6
                 ;     572         temp++;
0006e2 81e8      	LD   R30,Y
0006e3 81f9      	LDD  R31,Y+1
0006e4 9631      	ADIW R30,1
0006e5 83e8      	ST   Y,R30
0006e6 83f9      	STD  Y+1,R31
                 ;     573     }               
0006e7 81ea      	LDD  R30,Y+2
0006e8 81fb      	LDD  R31,Y+2+1
0006e9 9631      	ADIW R30,1
0006ea 83ea      	STD  Y+2,R30
0006eb 83fb      	STD  Y+2+1,R31
0006ec cfe1      	RJMP _0x70
                 _0x71:
                 ;     574     printf("%s \r\n",(char*)(START_RAM+SCREEN_WIDTH+MAX_LED));
0006ed e5e1
0006ee e0f1      	__POINTW1FN _0,199
0006ef 93fa      	ST   -Y,R31
0006f0 93ea      	ST   -Y,R30
0006f1 eae5
0006f2 e0f6
0006f3 e060
0006f4 e070      	__GETD1N 0x6A5
0006f5 d616      	RCALL __PUTPARD1
0006f6 e084      	LDI  R24,4
0006f7 d40f      	RCALL _printf
0006f8 9626      	ADIW R28,6
                 ;     575 }
0006f9 9624      	ADIW R28,4
                 ;     576 #endif 
                 ;     577     start_mem = (PBYTE)START_RAM;
0006fa e0e0      	LDI  R30,LOW(1280)
0006fb e0f5      	LDI  R31,HIGH(1280)
0006fc 93e0 00c4 	STS  _start_mem_G1,R30
0006fe 93f0 00c5 	STS  _start_mem_G1+1,R31
                 ;     578     reset_serial();    
000700 d1dc      	RCALL _reset_serial
                 ;     579 }
000701 9508      	RET
                 ;     580 
                 ;     581 ///////////////////////////////////////////////////////////////
                 ;     582 // END static function(s)
                 ;     583 ///////////////////////////////////////////////////////////////
                 ;     584 
                 ;     585 ///////////////////////////////////////////////////////////////           
                 ;     586 
                 ;     587 void InitDevice()
                 ;     588 {
                 _InitDevice:
                 ;     589 // Declare your local variables here
                 ;     590 // Crystal Oscillator division factor: 1  
                 ;     591 #ifdef _MEGA162_INCLUDED_ 
                 ;     592 #pragma optsize-
                 ;     593 CLKPR=0x80;
                 ;     594 CLKPR=0x00;
                 ;     595 #ifdef _OPTIMIZE_SIZE_
                 ;     596 #pragma optsize+
                 ;     597 #endif                    
                 ;     598 #endif
                 ;     599 
                 ;     600 PORTA=0x00;
000702 e0e0      	LDI  R30,LOW(0)
000703 bbeb      	OUT  0x1B,R30
                 ;     601 DDRA=0x00;
000704 bbea      	OUT  0x1A,R30
                 ;     602 
                 ;     603 PORTB=0x00;
000705 bbe8      	OUT  0x18,R30
                 ;     604 DDRB=0xFF;
000706 efef      	LDI  R30,LOW(255)
000707 bbe7      	OUT  0x17,R30
                 ;     605 
                 ;     606 PORTC=0x00;
000708 e0e0      	LDI  R30,LOW(0)
000709 bbe5      	OUT  0x15,R30
                 ;     607 DDRC=0x00;
00070a bbe4      	OUT  0x14,R30
                 ;     608 
                 ;     609 PORTD = 0x00;
00070b bbe2      	OUT  0x12,R30
                 ;     610 DDRD = 0x00;
00070c bbe1      	OUT  0x11,R30
                 ;     611 
                 ;     612 PORTE=0x00;
00070d b9e7      	OUT  0x7,R30
                 ;     613 DDRE=0x05;
00070e e0e5      	LDI  R30,LOW(5)
00070f b9e6      	OUT  0x6,R30
                 ;     614 
                 ;     615 TCCR0=0x03; 
000710 e0e3      	LDI  R30,LOW(3)
000711 bfe3      	OUT  0x33,R30
                 ;     616 TCNT0=0x05; 
000712 e0e5      	LDI  R30,LOW(5)
000713 bfe2      	OUT  0x32,R30
                 ;     617 OCR0=0x00;  
000714 e0e0      	LDI  R30,LOW(0)
000715 bfe1      	OUT  0x31,R30
                 ;     618 
                 ;     619 UCSRA=0x00;
000716 b9eb      	OUT  0xB,R30
                 ;     620 UCSRB=0x98;
000717 e9e8      	LDI  R30,LOW(152)
000718 b9ea      	OUT  0xA,R30
                 ;     621 UCSRC=0x86;
000719 e8e6      	LDI  R30,LOW(134)
00071a bde0      	OUT  0x20,R30
                 ;     622 UBRRH=0x00;
00071b e0e0      	LDI  R30,LOW(0)
00071c bde0      	OUT  0x20,R30
                 ;     623 UBRRL=0x67;
00071d e6e7      	LDI  R30,LOW(103)
00071e b9e9      	OUT  0x9,R30
                 ;     624 
                 ;     625 MCUCR=0x80;
00071f e8e0      	LDI  R30,LOW(128)
000720 bfe5      	OUT  0x35,R30
                 ;     626 EMCUCR=0x00;     
000721 e0e0      	LDI  R30,LOW(0)
000722 bfe6      	OUT  0x36,R30
                 ;     627 
                 ;     628 TIMSK=0x02;
000723 e0e2      	LDI  R30,LOW(2)
000724 bfe9      	OUT  0x39,R30
                 ;     629 
                 ;     630 // I2C Bus initialization
                 ;     631 i2c_init();
000725 d493      	RCALL _i2c_init
                 ;     632 
                 ;     633 // DS1307 Real Time Clock initialization
                 ;     634 // Square wave output on pin SQW/OUT: Off
                 ;     635 // SQW/OUT pin state: 1
                 ;     636 rtc_init(0,0,1);   
000726 e0e0      	LDI  R30,LOW(0)
000727 93ea      	ST   -Y,R30
000728 93ea      	ST   -Y,R30
000729 e0e1      	LDI  R30,LOW(1)
00072a 93ea      	ST   -Y,R30
00072b d3f6      	RCALL _rtc_init
                 ;     637 
                 ;     638 #ifdef __WATCH_DOG_
                 ;     639 //WDTCR=0x1F;
                 ;     640 //WDTCR=0x0F;
                 ;     641 #endif 
                 ;     642     printf("                                          \r\n");
00072c e6ef
00072d e0f1      	__POINTW1FN _0,229
00072e 93fa      	ST   -Y,R31
00072f 93ea      	ST   -Y,R30
000730 e080      	LDI  R24,0
000731 d3d5      	RCALL _printf
000732 9622      	ADIW R28,2
                 ;     643     printf("|=========================================|\r\n");
000733 e9ec
000734 e0f1      	__POINTW1FN _0,274
000735 93fa      	ST   -Y,R31
000736 93ea      	ST   -Y,R30
000737 e080      	LDI  R24,0
000738 d3ce      	RCALL _printf
000739 9622      	ADIW R28,2
                 ;     644     printf("|      DigiLED AVR Firmware v1.0.0        |\r\n");
00073a ecea
00073b e0f1      	__POINTW1FN _0,320
00073c 93fa      	ST   -Y,R31
00073d 93ea      	ST   -Y,R30
00073e e080      	LDI  R24,0
00073f d3c7      	RCALL _printf
000740 9622      	ADIW R28,2
                 ;     645     printf("|_________________________________________|\r\n");
000741 efe8
000742 e0f1      	__POINTW1FN _0,366
000743 93fa      	ST   -Y,R31
000744 93ea      	ST   -Y,R30
000745 e080      	LDI  R24,0
000746 d3c0      	RCALL _printf
000747 9622      	ADIW R28,2
                 ;     646     printf("|        Copyright by CuongQuay           |\r\n");  
000748 e2e6
000749 e0f2      	__POINTW1FN _0,412
00074a 93fa      	ST   -Y,R31
00074b 93ea      	ST   -Y,R30
00074c e080      	LDI  R24,0
00074d d3b9      	RCALL _printf
00074e 9622      	ADIW R28,2
                 ;     647     printf("|    cuong3ihut@yahoo.com - 0915651001    |\r\n");
00074f e5e4
000750 e0f2      	__POINTW1FN _0,458
000751 93fa      	ST   -Y,R31
000752 93ea      	ST   -Y,R30
000753 e080      	LDI  R24,0
000754 d3b2      	RCALL _printf
000755 9622      	ADIW R28,2
                 ;     648     printf("|       Started date: 24.05.2007          |\r\n");
000756 e8e2
000757 e0f2      	__POINTW1FN _0,504
000758 93fa      	ST   -Y,R31
000759 93ea      	ST   -Y,R30
00075a e080      	LDI  R24,0
00075b d3ab      	RCALL _printf
00075c 9622      	ADIW R28,2
                 ;     649     printf("|       Release date: 23.06.2007          |\r\n");
00075d ebe0
00075e e0f2      	__POINTW1FN _0,550
00075f 93fa      	ST   -Y,R31
000760 93ea      	ST   -Y,R30
000761 e080      	LDI  R24,0
000762 d3a4      	RCALL _printf
000763 9622      	ADIW R28,2
                 ;     650     printf("|_________________________________________|\r\n");              
000764 efe8
000765 e0f1      	__POINTW1FN _0,366
000766 93fa      	ST   -Y,R31
000767 93ea      	ST   -Y,R30
000768 e080      	LDI  R24,0
000769 d39d      	RCALL _printf
00076a 9622      	ADIW R28,2
                 ;     651     printf("                                          \r\n");    
00076b e6ef
00076c e0f1      	__POINTW1FN _0,229
00076d 93fa      	ST   -Y,R31
00076e 93ea      	ST   -Y,R30
00076f e080      	LDI  R24,0
000770 d396      	RCALL _printf
000771 9622      	ADIW R28,2
                 ;     652     RESET_WATCHDOG();
000772 95a8      	WDR
                 ;     653 #ifdef __TEST_RTC_
                 ;     654 {                                
                 ;     655     BYTE hh=0,mm=0,ss=0,DD=0,MM=0,YY=0;
                 ;     656     rtc_get_date(&DD,&MM,&YY);
000773 9726      	SBIW R28,6
000774 e086      	LDI  R24,6
000775 e0a0      	LDI  R26,LOW(0)
000776 e0b0      	LDI  R27,HIGH(0)
000777 e6e2      	LDI  R30,LOW(_0x72*2)
000778 e0f0      	LDI  R31,HIGH(_0x72*2)
000779 d5a8      	RCALL __INITLOCB
                 ;	hh -> Y+5
                 ;	mm -> Y+4
                 ;	ss -> Y+3
                 ;	DD -> Y+2
                 ;	MM -> Y+1
                 ;	YY -> Y+0
00077a 01fe      	MOVW R30,R28
00077b 9632      	ADIW R30,2
00077c 93fa      	ST   -Y,R31
00077d 93ea      	ST   -Y,R30
00077e 01fe      	MOVW R30,R28
00077f 9633      	ADIW R30,3
000780 93fa      	ST   -Y,R31
000781 93ea      	ST   -Y,R30
000782 01fe      	MOVW R30,R28
000783 9634      	ADIW R30,4
000784 93fa      	ST   -Y,R31
000785 93ea      	ST   -Y,R30
000786 d3f3      	RCALL _rtc_get_date
                 ;     657     rtc_get_time(&hh,&mm,&ss);
000787 01fe      	MOVW R30,R28
000788 9635      	ADIW R30,5
000789 93fa      	ST   -Y,R31
00078a 93ea      	ST   -Y,R30
00078b 01fe      	MOVW R30,R28
00078c 9636      	ADIW R30,6
00078d 93fa      	ST   -Y,R31
00078e 93ea      	ST   -Y,R30
00078f 01fe      	MOVW R30,R28
000790 9637      	ADIW R30,7
000791 93fa      	ST   -Y,R31
000792 93ea      	ST   -Y,R30
000793 d3a9      	RCALL _rtc_get_time
                 ;     658     printf("DS1307 GMT: %02d:%02d:%02d %02d-%02d-%02d\r\n",hh,mm,ss,DD,MM,YY);
000794 edee
000795 e0f2      	__POINTW1FN _0,596
000796 93fa      	ST   -Y,R31
000797 93ea      	ST   -Y,R30
000798 81ef      	LDD  R30,Y+7
000799 27ff      	CLR  R31
00079a 2766      	CLR  R22
00079b 2777      	CLR  R23
00079c d56f      	RCALL __PUTPARD1
00079d 85ea      	LDD  R30,Y+10
00079e 27ff      	CLR  R31
00079f 2766      	CLR  R22
0007a0 2777      	CLR  R23
0007a1 d56a      	RCALL __PUTPARD1
0007a2 85ed      	LDD  R30,Y+13
0007a3 27ff      	CLR  R31
0007a4 2766      	CLR  R22
0007a5 2777      	CLR  R23
0007a6 d565      	RCALL __PUTPARD1
0007a7 89e8      	LDD  R30,Y+16
0007a8 27ff      	CLR  R31
0007a9 2766      	CLR  R22
0007aa 2777      	CLR  R23
0007ab d560      	RCALL __PUTPARD1
0007ac 89eb      	LDD  R30,Y+19
0007ad 27ff      	CLR  R31
0007ae 2766      	CLR  R22
0007af 2777      	CLR  R23
0007b0 d55b      	RCALL __PUTPARD1
0007b1 89ee      	LDD  R30,Y+22
0007b2 27ff      	CLR  R31
0007b3 2766      	CLR  R22
0007b4 2777      	CLR  R23
0007b5 d556      	RCALL __PUTPARD1
0007b6 e188      	LDI  R24,24
0007b7 d34f      	RCALL _printf
0007b8 966a      	ADIW R28,26
                 ;     659 }           
0007b9 9626      	ADIW R28,6
                 ;     660 #endif    
                 ;     661     RESET_WATCHDOG();               
0007ba 95a8      	WDR
                 ;     662 }
0007bb 9508      	RET
                 ;     663 
                 ;     664 void PowerReset()
                 ;     665 {   
                 _PowerReset:
                 ;     666     start_mem = (PBYTE)START_RAM;     
0007bc e0e0      	LDI  R30,LOW(1280)
0007bd e0f5      	LDI  R31,HIGH(1280)
0007be 93e0 00c4 	STS  _start_mem_G1,R30
0007c0 93f0 00c5 	STS  _start_mem_G1+1,R31
                 ;     667     end_mem   = (PBYTE)END_RAM;
0007c2 efef      	LDI  R30,LOW(32767)
0007c3 e7ff      	LDI  R31,HIGH(32767)
0007c4 93e0 00c6 	STS  _end_mem_G1,R30
0007c6 93f0 00c7 	STS  _end_mem_G1+1,R31
                 ;     668     org_mem   = (PBYTE)START_RAM;	                   
0007c8 e0e0      	LDI  R30,LOW(1280)
0007c9 e0f5      	LDI  R31,HIGH(1280)
0007ca 93e0 00ca 	STS  _org_mem_G1,R30
0007cc 93f0 00cb 	STS  _org_mem_G1+1,R31
                 ;     669 
                 ;     670     InitDevice();
0007ce df33      	RCALL _InitDevice
                 ;     671                      
                 ;     672     LED_STATUS = 0;
0007cf 98c4      	CBI  0x18,4
                 ;     673     BlankRAM((PBYTE)START_RAM,(PBYTE)END_RAM);    
0007d0 e0e0      	LDI  R30,LOW(1280)
0007d1 e0f5      	LDI  R31,HIGH(1280)
0007d2 93fa      	ST   -Y,R31
0007d3 93ea      	ST   -Y,R30
0007d4 efef      	LDI  R30,LOW(32767)
0007d5 e7ff      	LDI  R31,HIGH(32767)
0007d6 93fa      	ST   -Y,R31
0007d7 93ea      	ST   -Y,R30
0007d8 dd9c      	RCALL _BlankRAM
                 ;     674     delay_ms(500);
0007d9 efe4      	LDI  R30,LOW(500)
0007da e0f1      	LDI  R31,HIGH(500)
0007db 93fa      	ST   -Y,R31
0007dc 93ea      	ST   -Y,R30
0007dd d442      	RCALL _delay_ms
                 ;     675     LED_STATUS = 1;
0007de 9ac4      	SBI  0x18,4
                 ;     676         
                 ;     677     LED_STATUS = 0;  
0007df 98c4      	CBI  0x18,4
                 ;     678     page_index = 0; 
0007e0 e0e0      	LDI  R30,LOW(0)
0007e1 93e0 00cd 	STS  _page_index_G1,R30
                 ;     679     LoadPage();        
0007e3 de9e      	RCALL _LoadPage
                 ;     680     LED_STATUS = 1;             
0007e4 9ac4      	SBI  0x18,4
                 ;     681                        
                 ;     682     // reload configuration
                 ;     683     LED_STATUS = 0;
0007e5 98c4      	CBI  0x18,4
                 ;     684     delay_ms(100);
0007e6 e6e4      	LDI  R30,LOW(100)
0007e7 e0f0      	LDI  R31,HIGH(100)
0007e8 93fa      	ST   -Y,R31
0007e9 93ea      	ST   -Y,R30
0007ea d435      	RCALL _delay_ms
                 ;     685     LED_STATUS = 1;  
0007eb 9ac4      	SBI  0x18,4
                 ;     686     PORTD = 0x00;
0007ec e0e0      	LDI  R30,LOW(0)
0007ed bbe2      	OUT  0x12,R30
                 ;     687     DDRD = 0x3F;      
0007ee e3ef      	LDI  R30,LOW(63)
0007ef bbe1      	OUT  0x11,R30
                 ;     688 }
0007f0 9508      	RET
                 ;     689 
                 ;     690 void ProcessCommand()
                 ;     691 {
                 _ProcessCommand:
                 ;     692    	#asm("cli"); 
0007f1 94f8      	cli
                 ;     693     RESET_WATCHDOG();
0007f2 95a8      	WDR
                 ;     694     // Turn off the scan board           
                 ;     695     _powerOff();
0007f3 da03      	RCALL __powerOff_G1
                 ;     696     // serial message processing     
                 ;     697     switch (rx_message)
0007f4 2de8      	MOV  R30,R8
                 ;     698     {                  
                 ;     699     case LOAD_DATA_MSG:
0007f5 30e1      	CPI  R30,LOW(0x1)
0007f6 f5e1      	BRNE _0x76
                 ;     700         {       
                 ;     701             if (rx_wparam > DATA_LENGTH) rx_wparam = DATA_LENGTH;
0007f7 efe8      	LDI  R30,LOW(3832)
0007f8 e0fe      	LDI  R31,HIGH(3832)
0007f9 15e9      	CP   R30,R9
0007fa 05fa      	CPC  R31,R10
0007fb f410      	BRSH _0x77
0007fc 2e9e
0007fd 2eaf      	__PUTW1R 9,10
                 ;     702             BlankRAM((PBYTE)START_RAM,(PBYTE)END_RAM);
                 _0x77:
0007fe e0e0      	LDI  R30,LOW(1280)
0007ff e0f5      	LDI  R31,HIGH(1280)
000800 93fa      	ST   -Y,R31
000801 93ea      	ST   -Y,R30
000802 efef      	LDI  R30,LOW(32767)
000803 e7ff      	LDI  R31,HIGH(32767)
000804 93fa      	ST   -Y,R31
000805 93ea      	ST   -Y,R30
000806 dd6e      	RCALL _BlankRAM
                 ;     703             page_index = rx_wparam>>8; 
000807 92a0 00cd 	STS  _page_index_G1,R10
                 ;     704             scroll_rate = rx_wparam&0x00FF;                                   
000809 2de9
00080a 2dfa      	__GETW1R 9,10
00080b 93e0 00cc 	STS  _scroll_rate_G1,R30
                 ;     705             text_length = rx_lparam;                     
00080d 92b0 00d0
00080f 92c0 00d1 	__PUTWMRN _text_length_G1,0,11,12
                 ;     706             SerialToRAM((PBYTE)START_RAM+SCREEN_WIDTH,text_length);                
000811 e6e8      	LDI  R30,LOW(1384)
000812 e0f5      	LDI  R31,HIGH(1384)
000813 93fa      	ST   -Y,R31
000814 93ea      	ST   -Y,R30
000815 91e0 00d0 	LDS  R30,_text_length_G1
000817 91f0 00d1 	LDS  R31,_text_length_G1+1
000819 93fa      	ST   -Y,R31
00081a 93ea      	ST   -Y,R30
00081b dc66      	RCALL _SerialToRAM
                 ;     707             start_mem = (PBYTE)START_RAM;
00081c e0e0      	LDI  R30,LOW(1280)
00081d e0f5      	LDI  R31,HIGH(1280)
00081e 93e0 00c4 	STS  _start_mem_G1,R30
000820 93f0 00c5 	STS  _start_mem_G1+1,R31
                 ;     708             SaveConfig(page_index);					    		    		    	
000822 91e0 00cd 	LDS  R30,_page_index_G1
000824 93ea      	ST   -Y,R30
000825 dd3a      	RCALL _SaveConfig
                 ;     709             SaveToEEPROM((PBYTE)START_RAM+SCREEN_WIDTH,PAGE_SIZE,page_index);            
000826 e6e8      	LDI  R30,LOW(1384)
000827 e0f5      	LDI  R31,HIGH(1384)
000828 93fa      	ST   -Y,R31
000829 93ea      	ST   -Y,R30
00082a e8e0      	LDI  R30,LOW(384)
00082b e0f1      	LDI  R31,HIGH(384)
00082c 93fa      	ST   -Y,R31
00082d 93ea      	ST   -Y,R30
00082e 91e0 00cd 	LDS  R30,_page_index_G1
000830 93ea      	ST   -Y,R30
000831 dc8a      	RCALL _SaveToEEPROM
                 ;     710         }				
                 ;     711         break;   
000832 c010      	RJMP _0x75
                 ;     712     case LOAD_CONFIG_MSG:
                 _0x76:
000833 30e2      	CPI  R30,LOW(0x2)
000834 f459      	BRNE _0x78
                 ;     713         {    
                 ;     714             page_index = rx_wparam>>8;
000835 92a0 00cd 	STS  _page_index_G1,R10
                 ;     715             scroll_rate = rx_wparam&0x00FF;             
000837 2de9
000838 2dfa      	__GETW1R 9,10
000839 93e0 00cc 	STS  _scroll_rate_G1,R30
                 ;     716             SaveConfig(page_index);
00083b 91e0 00cd 	LDS  R30,_page_index_G1
00083d 93ea      	ST   -Y,R30
00083e dd21      	RCALL _SaveConfig
                 ;     717         }
                 ;     718         break;       
00083f c003      	RJMP _0x75
                 ;     719     case SET_RTC_MSG:
                 _0x78:
000840 30e3      	CPI  R30,LOW(0x3)
000841 f409      	BRNE _0x7A
                 ;     720         {                                
                 ;     721             SetRTCDateTime();
000842 dd45      	RCALL _SetRTCDateTime
                 ;     722         }
                 ;     723         break;    
                 ;     724     default:
                 _0x7A:
                 ;     725         break;
                 ;     726     }                 
                 _0x75:
                 ;     727     send_echo_msg();            
000843 d07b      	RCALL _send_echo_msg
                 ;     728     rx_message = UNKNOWN_MSG;
000844 2488      	CLR  R8
                 ;     729     #asm("sei");
000845 9478      	sei
                 ;     730     PORTD = 0x00;
000846 e0e0      	LDI  R30,LOW(0)
000847 bbe2      	OUT  0x12,R30
                 ;     731     DDRD = 0x3F;     
000848 e3ef      	LDI  R30,LOW(63)
000849 bbe1      	OUT  0x11,R30
                 ;     732 
                 ;     733 }          
00084a 9508      	RET
                 ;     734 ////////////////////////////////////////////////////////////////////////////////
                 ;     735 // MAIN PROGRAM
                 ;     736 ////////////////////////////////////////////////////////////////////////////////
                 ;     737 void main(void)
                 ;     738 {         
                 _main:
                 ;     739     if (MCUCSR & 8){
00084b b7e4      	IN   R30,0x34
00084c ffe3      	SBRS R30,3
00084d c005      	RJMP _0x7B
                 ;     740         // Watchdog Reset
                 ;     741         MCUCSR&=0xE0;  
00084e b7e4      	IN   R30,0x34
00084f 7ee0      	ANDI R30,LOW(0xE0)
000850 bfe4      	OUT  0x34,R30
                 ;     742         reset_serial(); 
000851 d08b      	RCALL _reset_serial
                 ;     743     }
                 ;     744     else {      
000852 c003      	RJMP _0x7C
                 _0x7B:
                 ;     745         MCUCSR&=0xE0;
000853 b7e4      	IN   R30,0x34
000854 7ee0      	ANDI R30,LOW(0xE0)
000855 bfe4      	OUT  0x34,R30
                 ;     746     }                                     
                 _0x7C:
                 ;     747      
                 ;     748     PowerReset();                        
000856 df65      	RCALL _PowerReset
                 ;     749     #asm("sei");     
000857 9478      	sei
                 ;     750             
                 ;     751     while (1){                     
                 _0x7D:
                 ;     752         if (rx_message != UNKNOWN_MSG){   
000858 2088      	TST  R8
000859 f011      	BREQ _0x80
                 ;     753             ProcessCommand();   
00085a df96      	RCALL _ProcessCommand
                 ;     754         }
                 ;     755         else{               
00085b c002      	RJMP _0x81
                 _0x80:
                 ;     756             _doPaging();
00085c dab0      	RCALL __doPaging_G1
                 ;     757             _displayFrame();                        
00085d da61      	RCALL __displayFrame_G1
                 ;     758         }
                 _0x81:
                 ;     759         RESET_WATCHDOG();
00085e 95a8      	WDR
                 ;     760     }
00085f cff8      	RJMP _0x7D
                 ;     761 }
                 _0x82:
000860 0000      	NOP
000861 cffe      	RJMP _0x82
                 ;     762                          
                 ;     763 #include "define.h"
                 ;     764 
                 ;     765 ///////////////////////////////////////////////////////////////
                 ;     766 // serial interrupt handle - processing serial message ...
                 ;     767 ///////////////////////////////////////////////////////////////
                 ;     768 // [0x55][0x55][0x55][rx_message][rx_wparam][rx_lparam]
                 ;     769 ///////////////////////////////////////////////////////////////
                 ;     770 BYTE rx_buffer[RX_BUFFER_SIZE];
                 
                 	.DSEG
                 _rx_buffer:
000146           	.BYTE 0x8
                 ;     771 extern BYTE  rx_message;
                 ;     772 extern WORD  rx_wparam;
                 ;     773 extern WORD  rx_lparam;
                 ;     774 
                 ;     775 #if RX_BUFFER_SIZE<256
                 ;     776 unsigned char rx_wr_index,rx_counter;
                 ;     777 #else
                 ;     778 unsigned int rx_wr_index,rx_counter;
                 ;     779 #endif
                 ;     780 
                 ;     781 void send_echo_msg();
                 ;     782 
                 ;     783 // USART Receiver interrupt service routine
                 ;     784 #ifdef _MEGA162_INCLUDED_                    
                 ;     785 interrupt [USART0_RXC] void usart_rx_isr(void)
                 ;     786 #else
                 ;     787 interrupt [USART_RXC] void usart_rx_isr(void)
                 ;     788 #endif
                 ;     789 {
                 
                 	.CSEG
                 _usart_rx_isr:
000862 93aa      	ST   -Y,R26
000863 93ba      	ST   -Y,R27
000864 93ea      	ST   -Y,R30
000865 93fa      	ST   -Y,R31
000866 b7ef      	IN   R30,SREG
000867 93ea      	ST   -Y,R30
                 ;     790 char status,data;
                 ;     791 #ifdef _MEGA162_INCLUDED_  
                 ;     792 status=UCSR0A;
                 ;     793 data=UDR0;
                 ;     794 #else     
                 ;     795 status=UCSRA;
000868 d4ac      	RCALL __SAVELOCR2
                 ;	status -> R16
                 ;	data -> R17
000869 b10b      	IN   R16,11
                 ;     796 data=UDR;
00086a b11c      	IN   R17,12
                 ;     797 #endif          
                 ;     798     if ((status & (FRAMING_ERROR | PARITY_ERROR | DATA_OVERRUN))==0)
00086b 2fe0      	MOV  R30,R16
00086c 71ec      	ANDI R30,LOW(0x1C)
00086d f009      	BREQ PC+2
00086e c048      	RJMP _0x83
                 ;     799     {
                 ;     800         rx_buffer[rx_wr_index]=data; 
00086f 2dad      	MOV  R26,R13
000870 e0b0      	LDI  R27,0
000871 5baa      	SUBI R26,LOW(-_rx_buffer)
000872 4fbe      	SBCI R27,HIGH(-_rx_buffer)
000873 931c      	ST   X,R17
                 ;     801         if (++rx_wr_index == RX_BUFFER_SIZE) rx_wr_index=0;
000874 94d3      	INC  R13
000875 e0e8      	LDI  R30,LOW(8)
000876 15ed      	CP   R30,R13
000877 f409      	BRNE _0x84
000878 24dd      	CLR  R13
                 ;     802         if (++rx_counter == RX_BUFFER_SIZE)
                 _0x84:
000879 94e3      	INC  R14
00087a e0e8      	LDI  R30,LOW(8)
00087b 15ee      	CP   R30,R14
00087c f5d1      	BRNE _0x85
                 ;     803         {
                 ;     804             rx_counter=0;
00087d 24ee      	CLR  R14
                 ;     805             if (
                 ;     806                 rx_buffer[0]==WAKEUP_CHAR && rx_buffer[1]==WAKEUP_CHAR &&        
                 ;     807                 rx_buffer[2]==WAKEUP_CHAR 
                 ;     808                 )
00087e 91a0 0146 	LDS  R26,_rx_buffer
000880 3aaa      	CPI  R26,LOW(0xAA)
000881 f441      	BRNE _0x87
000882 91e0 0147 	__GETB1MN _rx_buffer,1
000884 3aea      	CPI  R30,LOW(0xAA)
000885 f421      	BRNE _0x87
000886 91e0 0148 	__GETB1MN _rx_buffer,2
000888 3aea      	CPI  R30,LOW(0xAA)
000889 f009      	BREQ _0x88
                 _0x87:
00088a c01d      	RJMP _0x86
                 _0x88:
                 ;     809             {
                 ;     810                 rx_message  = rx_buffer[3];    // message value 
00088b 9080 0149 	__GETBRMN 8,_rx_buffer,3
                 ;     811                 rx_wparam   = rx_buffer[4];    // wparam value
00088d 9090 014a 	__GETBRMN 9,_rx_buffer,4
00088f 24aa      	CLR  R10
                 ;     812                 rx_wparam   = (rx_wparam<<8)|rx_buffer[5]; 
000890 2df9      	MOV  R31,R9
000891 e0e0      	LDI  R30,LOW(0)
000892 01df      	MOVW R26,R30
000893 91e0 014b 	__GETB1MN _rx_buffer,5
000895 e0f0      	LDI  R31,0
000896 2bea      	OR   R30,R26
000897 2bfb      	OR   R31,R27
000898 2e9e
000899 2eaf      	__PUTW1R 9,10
                 ;     813                 rx_lparam   = rx_buffer[6];    // lparam value
00089a 90b0 014c 	__GETBRMN 11,_rx_buffer,6
00089c 24cc      	CLR  R12
                 ;     814                 rx_lparam   = (rx_lparam<<8)|rx_buffer[7];                           
00089d 2dfb      	MOV  R31,R11
00089e e0e0      	LDI  R30,LOW(0)
00089f 01df      	MOVW R26,R30
0008a0 91e0 014d 	__GETB1MN _rx_buffer,7
0008a2 e0f0      	LDI  R31,0
0008a3 2bea      	OR   R30,R26
0008a4 2bfb      	OR   R31,R27
0008a5 2ebe
0008a6 2ecf      	__PUTW1R 11,12
                 ;     815             }
                 ;     816             else if(
0008a7 c00f      	RJMP _0x89
                 _0x86:
                 ;     817                 rx_buffer[0]==ESCAPE_CHAR && rx_buffer[1]==ESCAPE_CHAR &&        
                 ;     818                 rx_buffer[2]==ESCAPE_CHAR 
                 ;     819                 )
0008a8 91a0 0146 	LDS  R26,_rx_buffer
0008aa 3faf      	CPI  R26,LOW(0xFF)
0008ab f441      	BRNE _0x8B
0008ac 91e0 0147 	__GETB1MN _rx_buffer,1
0008ae 3fef      	CPI  R30,LOW(0xFF)
0008af f421      	BRNE _0x8B
0008b0 91e0 0148 	__GETB1MN _rx_buffer,2
0008b2 3fef      	CPI  R30,LOW(0xFF)
0008b3 f009      	BREQ _0x8C
                 _0x8B:
0008b4 c002      	RJMP _0x8A
                 _0x8C:
                 ;     820             {
                 ;     821                 rx_wr_index=0;
0008b5 24dd      	CLR  R13
                 ;     822                 rx_counter =0;
0008b6 24ee      	CLR  R14
                 ;     823             }      
                 ;     824         };
                 _0x8A:
                 _0x89:
                 _0x85:
                 ;     825     };
                 _0x83:
                 ;     826 }
0008b7 d467      	RCALL __LOADLOCR2P
0008b8 91e9      	LD   R30,Y+
0008b9 bfef      	OUT  SREG,R30
0008ba 91f9      	LD   R31,Y+
0008bb 91e9      	LD   R30,Y+
0008bc 91b9      	LD   R27,Y+
0008bd 91a9      	LD   R26,Y+
0008be 9518      	RETI
                 ;     827 
                 ;     828 void send_echo_msg()
                 ;     829 {
                 _send_echo_msg:
                 ;     830     putchar(WAKEUP_CHAR);
0008bf eaea      	LDI  R30,LOW(170)
0008c0 93ea      	ST   -Y,R30
0008c1 d0b3      	RCALL _putchar
                 ;     831     putchar(WAKEUP_CHAR);
0008c2 eaea      	LDI  R30,LOW(170)
0008c3 93ea      	ST   -Y,R30
0008c4 d0b0      	RCALL _putchar
                 ;     832     putchar(WAKEUP_CHAR);                
0008c5 eaea      	LDI  R30,LOW(170)
0008c6 93ea      	ST   -Y,R30
0008c7 d0ad      	RCALL _putchar
                 ;     833     putchar(rx_message);
0008c8 928a      	ST   -Y,R8
0008c9 d0ab      	RCALL _putchar
                 ;     834     putchar(rx_wparam>>8);
0008ca 2dea      	MOV  R30,R10
0008cb 70f0      	ANDI R31,HIGH(0x0)
0008cc 93ea      	ST   -Y,R30
0008cd d0a7      	RCALL _putchar
                 ;     835     putchar(rx_wparam&0x00FF);
0008ce 2de9
0008cf 2dfa      	__GETW1R 9,10
0008d0 70f0      	ANDI R31,HIGH(0xFF)
0008d1 93ea      	ST   -Y,R30
0008d2 d0a2      	RCALL _putchar
                 ;     836     putchar(rx_lparam>>8);        
0008d3 2dec      	MOV  R30,R12
0008d4 70f0      	ANDI R31,HIGH(0x0)
0008d5 93ea      	ST   -Y,R30
0008d6 d09e      	RCALL _putchar
                 ;     837     putchar(rx_lparam&0x00FF);
0008d7 2deb
0008d8 2dfc      	__GETW1R 11,12
0008d9 70f0      	ANDI R31,HIGH(0xFF)
0008da 93ea      	ST   -Y,R30
0008db d099      	RCALL _putchar
                 ;     838 }  
0008dc 9508      	RET
                 ;     839 
                 ;     840 void reset_serial()
                 ;     841 {
                 _reset_serial:
                 ;     842     rx_wr_index=0;
0008dd 24dd      	CLR  R13
                 ;     843     rx_counter =0;
0008de 24ee      	CLR  R14
                 ;     844     rx_message = UNKNOWN_MSG;
0008df 2488      	CLR  R8
                 ;     845 }
0008e0 9508      	RET
                 ;     846 
                 ;     847 ///////////////////////////////////////////////////////////////
                 ;     848 // END serial interrupt handle
                 ;     849 /////////////////////////////////////////////////////////////// 
                 ;     850 /*****************************************************
                 ;     851 This program was produced by the
                 ;     852 CodeWizardAVR V1.24.4a Standard
                 ;     853 Automatic Program Generator
                 ;     854 © Copyright 1998-2004 Pavel Haiduc, HP InfoTech s.r.l.
                 ;     855 http://www.hpinfotech.com
                 ;     856 e-mail:office@hpinfotech.com
                 ;     857 
                 ;     858 Project : 
                 ;     859 Version : 
                 ;     860 Date    : 19/5/2005
                 ;     861 Author  : 3iGROUP                
                 ;     862 Company : http://www.3ihut.net   
                 ;     863 Comments: 
                 ;     864 
                 ;     865 
                 ;     866 Chip type           : ATmega8515
                 ;     867 Program type        : Application
                 ;     868 Clock frequency     : 8.000000 MHz
                 ;     869 Memory model        : Small
                 ;     870 External SRAM size  : 32768
                 ;     871 Ext. SRAM wait state: 0
                 ;     872 Data Stack size     : 128
                 ;     873 *****************************************************/
                 ;     874 
                 ;     875 #include "define.h"                                           
                 ;     876 
                 ;     877 #define     ACK                 1
                 ;     878 #define     NO_ACK              0
                 ;     879 
                 ;     880 // I2C Bus functions
                 ;     881 #asm
                 ;     882    .equ __i2c_port=0x12 ;PORTD
                    .equ __i2c_port=0x12 ;PORTD
                 ;     883    .equ __sda_bit=3
                    .equ __sda_bit=3
                 ;     884    .equ __scl_bit=2
                    .equ __scl_bit=2
                 ;     885 #endasm                   
                 ;     886 
                 ;     887 #ifdef __EEPROM_WRITE_BYTE
                 ;     888 BYTE eeprom_read(BYTE deviceID, PBYTE address) 
                 ;     889 {
                 _eeprom_read:
                 ;     890     BYTE data;
                 ;     891     i2c_start();
0008e1 930a      	ST   -Y,R16
                 ;	deviceID -> Y+3
                 ;	*address -> Y+1
                 ;	data -> R16
0008e2 d2db      	RCALL _i2c_start
                 ;     892     i2c_write(deviceID);        // issued R/W = 0
0008e3 81eb      	LDD  R30,Y+3
0008e4 93ea      	ST   -Y,R30
0008e5 d30c      	RCALL _i2c_write
                 ;     893     i2c_write((WORD)address>>8);      // high word address
0008e6 81ea      	LDD  R30,Y+2
0008e7 70f0      	ANDI R31,HIGH(0x0)
0008e8 93ea      	ST   -Y,R30
0008e9 d308      	RCALL _i2c_write
                 ;     894     i2c_write((WORD)address&0x0FF);   // low word address
0008ea 81e9      	LDD  R30,Y+1
0008eb 81fa      	LDD  R31,Y+1+1
0008ec 70f0      	ANDI R31,HIGH(0xFF)
0008ed 93ea      	ST   -Y,R30
0008ee d303      	RCALL _i2c_write
                 ;     895     
                 ;     896     i2c_start();
0008ef d2ce      	RCALL _i2c_start
                 ;     897     i2c_write(deviceID | 1);    // issued R/W = 1
0008f0 81eb      	LDD  R30,Y+3
0008f1 60e1      	ORI  R30,1
0008f2 93ea      	ST   -Y,R30
0008f3 d2fe      	RCALL _i2c_write
                 ;     898     data=i2c_read(NO_ACK);      // read at current
0008f4 e0e0      	LDI  R30,LOW(0)
0008f5 93ea      	ST   -Y,R30
0008f6 d2e0      	RCALL _i2c_read
0008f7 2f0e      	MOV  R16,R30
                 ;     899     i2c_stop();
0008f8 d2d4      	RCALL _i2c_stop
                 ;     900     return data;
0008f9 2fe0      	MOV  R30,R16
0008fa 8108      	LDD  R16,Y+0
0008fb c016      	RJMP _0x109
                 ;     901 }
                 ;     902 
                 ;     903 void eeprom_write(BYTE deviceID, PBYTE address, BYTE data) 
                 ;     904 {
                 _eeprom_write:
                 ;     905     i2c_start();
                 ;	deviceID -> Y+3
                 ;	*address -> Y+1
                 ;	data -> Y+0
0008fc d2c1      	RCALL _i2c_start
                 ;     906     i2c_write(deviceID);        // device address
0008fd 81eb      	LDD  R30,Y+3
0008fe 93ea      	ST   -Y,R30
0008ff d2f2      	RCALL _i2c_write
                 ;     907     i2c_write((WORD)address>>8);      // high word address
000900 81ea      	LDD  R30,Y+2
000901 70f0      	ANDI R31,HIGH(0x0)
000902 93ea      	ST   -Y,R30
000903 d2ee      	RCALL _i2c_write
                 ;     908     i2c_write((WORD)address&0x0FF);   // low word address
000904 81e9      	LDD  R30,Y+1
000905 81fa      	LDD  R31,Y+1+1
000906 70f0      	ANDI R31,HIGH(0xFF)
000907 93ea      	ST   -Y,R30
000908 d2e9      	RCALL _i2c_write
                 ;     909     i2c_write(data);
000909 81e8      	LD   R30,Y
00090a 93ea      	ST   -Y,R30
00090b d2e6      	RCALL _i2c_write
                 ;     910     i2c_stop();
00090c d2c0      	RCALL _i2c_stop
                 ;     911 
                 ;     912     /* 10ms delay to complete the write operation */
                 ;     913     delay_ms(10);               // 2 ticks : 5x2 = 10 ms        
00090d e0ea      	LDI  R30,LOW(10)
00090e e0f0      	LDI  R31,HIGH(10)
00090f 93fa      	ST   -Y,R31
000910 93ea      	ST   -Y,R30
000911 d30e      	RCALL _delay_ms
                 ;     914 }                                 
                 _0x109:
000912 9624      	ADIW R28,4
000913 9508      	RET
                 ;     915 
                 ;     916 WORD eeprom_read_w(BYTE deviceID, PBYTE address)
                 ;     917 {
                 _eeprom_read_w:
                 ;     918     WORD result = 0;
                 ;     919     result = eeprom_read(deviceID,address);
000914 d400      	RCALL __SAVELOCR2
                 ;	deviceID -> Y+4
                 ;	*address -> Y+2
                 ;	result -> R16,R17
000915 e000      	LDI  R16,0
000916 e010      	LDI  R17,0
000917 81ec      	LDD  R30,Y+4
000918 93ea      	ST   -Y,R30
000919 81eb      	LDD  R30,Y+3
00091a 81fc      	LDD  R31,Y+3+1
00091b 93fa      	ST   -Y,R31
00091c 93ea      	ST   -Y,R30
00091d dfc3      	RCALL _eeprom_read
00091e 2f0e      	MOV  R16,R30
00091f 2711      	CLR  R17
                 ;     920     result = (result<<8) | eeprom_read(deviceID,address+1);
000920 2ff0      	MOV  R31,R16
000921 e0e0      	LDI  R30,LOW(0)
000922 93ff      	PUSH R31
000923 93ef      	PUSH R30
000924 81ec      	LDD  R30,Y+4
000925 93ea      	ST   -Y,R30
000926 81eb      	LDD  R30,Y+3
000927 81fc      	LDD  R31,Y+3+1
000928 9631      	ADIW R30,1
000929 93fa      	ST   -Y,R31
00092a 93ea      	ST   -Y,R30
00092b dfb5      	RCALL _eeprom_read
00092c 91af      	POP  R26
00092d 91bf      	POP  R27
00092e e0f0      	LDI  R31,0
00092f 2bea      	OR   R30,R26
000930 2bfb      	OR   R31,R27
000931 018f      	MOVW R16,R30
                 ;     921     return result;
000932 01f8      	MOVW R30,R16
000933 d3e8      	RCALL __LOADLOCR2
000934 9625      	ADIW R28,5
000935 9508      	RET
                 ;     922 }
                 ;     923 void eeprom_write_w(BYTE deviceID, PBYTE address, WORD data)
                 ;     924 {
                 ;     925     eeprom_write(deviceID,address,data>>8);
                 ;	deviceID -> Y+4
                 ;	*address -> Y+2
                 ;	data -> Y+0
                 ;     926     eeprom_write(deviceID,address+1,data&0x0FF);    
                 ;     927 }
                 ;     928 
                 ;     929 #endif // __EEPROM_WRITE_BYTE
                 ;     930 void eeprom_read_page(BYTE deviceID, PBYTE address, PBYTE buffer, BYTE page_size)
                 ;     931 {
                 _eeprom_read_page:
                 ;     932     BYTE i = 0;
                 ;     933     i2c_start();
000936 930a      	ST   -Y,R16
                 ;	deviceID -> Y+6
                 ;	*address -> Y+4
                 ;	*buffer -> Y+2
                 ;	page_size -> Y+1
                 ;	i -> R16
000937 e000      	LDI  R16,0
000938 d285      	RCALL _i2c_start
                 ;     934     i2c_write(deviceID);            // issued R/W = 0
000939 81ee      	LDD  R30,Y+6
00093a 93ea      	ST   -Y,R30
00093b d2b6      	RCALL _i2c_write
                 ;     935     i2c_write((WORD)address>>8);          // high word address
00093c 81ed      	LDD  R30,Y+5
00093d 70f0      	ANDI R31,HIGH(0x0)
00093e 93ea      	ST   -Y,R30
00093f d2b2      	RCALL _i2c_write
                 ;     936     i2c_write((WORD)address&0xFF);        // low word address
000940 81ec      	LDD  R30,Y+4
000941 81fd      	LDD  R31,Y+4+1
000942 70f0      	ANDI R31,HIGH(0xFF)
000943 93ea      	ST   -Y,R30
000944 d2ad      	RCALL _i2c_write
                 ;     937     
                 ;     938     i2c_start();
000945 d278      	RCALL _i2c_start
                 ;     939     i2c_write(deviceID | 1);        // issued R/W = 1
000946 81ee      	LDD  R30,Y+6
000947 60e1      	ORI  R30,1
000948 93ea      	ST   -Y,R30
000949 d2a8      	RCALL _i2c_write
                 ;     940                                     
                 ;     941     while ( i < page_size-1 )
                 _0x8D:
00094a 81e9      	LDD  R30,Y+1
00094b 50e1      	SUBI R30,LOW(1)
00094c 170e      	CP   R16,R30
00094d f480      	BRSH _0x8F
                 ;     942     {
                 ;     943         buffer[i++] = i2c_read(ACK);   // read at current
00094e 2fe0      	MOV  R30,R16
00094f 5f0f      	SUBI R16,-1
000950 81aa      	LDD  R26,Y+2
000951 81bb      	LDD  R27,Y+2+1
000952 e0f0      	LDI  R31,0
000953 0fea      	ADD  R30,R26
000954 1ffb      	ADC  R31,R27
000955 93ff      	PUSH R31
000956 93ef      	PUSH R30
000957 e0e1      	LDI  R30,LOW(1)
000958 93ea      	ST   -Y,R30
000959 d27d      	RCALL _i2c_read
00095a 91af      	POP  R26
00095b 91bf      	POP  R27
00095c 93ec      	ST   X,R30
                 ;     944     }
00095d cfec      	RJMP _0x8D
                 _0x8F:
                 ;     945     buffer[page_size-1] = i2c_read(NO_ACK); // read last byte
00095e 81e9      	LDD  R30,Y+1
00095f 50e1      	SUBI R30,LOW(1)
000960 81aa      	LDD  R26,Y+2
000961 81bb      	LDD  R27,Y+2+1
000962 e0f0      	LDI  R31,0
000963 0fea      	ADD  R30,R26
000964 1ffb      	ADC  R31,R27
000965 93ff      	PUSH R31
000966 93ef      	PUSH R30
000967 e0e0      	LDI  R30,LOW(0)
000968 93ea      	ST   -Y,R30
000969 d26d      	RCALL _i2c_read
00096a 91af      	POP  R26
00096b 91bf      	POP  R27
00096c 93ec      	ST   X,R30
                 ;     946          
                 ;     947     i2c_stop();
00096d d25f      	RCALL _i2c_stop
                 ;     948 }
00096e 8108      	LDD  R16,Y+0
00096f 9627      	ADIW R28,7
000970 9508      	RET
                 ;     949 
                 ;     950 void eeprom_write_page(BYTE deviceID, PBYTE address, PBYTE buffer, BYTE page_size)
                 ;     951 {
                 ;     952     BYTE i = 0;
                 ;     953     i2c_start();
                 ;	deviceID -> Y+6
                 ;	*address -> Y+4
                 ;	*buffer -> Y+2
                 ;	page_size -> Y+1
                 ;	i -> R16
                 ;     954     i2c_write(deviceID);            // issued R/W = 0
                 ;     955     i2c_write((WORD)address>>8);          // high word address
                 ;     956     i2c_write((WORD)address&0xFF);        // low word address
                 ;     957                                         
                 ;     958     while ( i < page_size )
                 ;     959     {
                 ;     960         i2c_write(buffer[i++]);
                 ;     961         #asm("nop");#asm("nop");
                 ;     962     }          
                 ;     963     i2c_stop(); 
                 ;     964     delay_ms(10);
                 ;     965 }
                 ;     966                                               
                 
                 _getchar:
000971 9b5f           sbis usr,rxc
000972 cffe           rjmp _getchar
000973 b1ec           in   r30,udr
000974 9508      	RET
                 _putchar:
000975 9b5d           sbis usr,udre
000976 cffe           rjmp _putchar
000977 81e8           ld   r30,y
000978 b9ec           out  udr,r30
000979 9621      	ADIW R28,1
00097a 9508      	RET
                 __put_G4:
00097b 81a8      	LD   R26,Y
00097c 81b9      	LDD  R27,Y+1
00097d d386      	RCALL __GETW1P
00097e 9730      	SBIW R30,0
00097f f049      	BREQ _0x93
000980 91ed      	LD   R30,X+
000981 91fd      	LD   R31,X+
000982 9631      	ADIW R30,1
000983 93fe      	ST   -X,R31
000984 93ee      	ST   -X,R30
000985 9731      	SBIW R30,1
000986 81aa      	LDD  R26,Y+2
000987 83a0      	STD  Z+0,R26
000988 c003      	RJMP _0x94
                 _0x93:
000989 81ea      	LDD  R30,Y+2
00098a 93ea      	ST   -Y,R30
00098b dfe9      	RCALL _putchar
                 _0x94:
00098c c22a      	RJMP _0x106
                 __print_G4:
00098d 9726      	SBIW R28,6
00098e d382      	RCALL __SAVELOCR6
00098f e000      	LDI  R16,0
                 _0x95:
000990 89e8      	LDD  R30,Y+16
000991 89f9      	LDD  R31,Y+16+1
000992 9631      	ADIW R30,1
000993 8be8      	STD  Y+16,R30
000994 8bf9      	STD  Y+16+1,R31
000995 9731      	SBIW R30,1
000996 91e4      	LPM  R30,Z
000997 2f3e      	MOV  R19,R30
000998 30e0      	CPI  R30,0
000999 f409      	BRNE PC+2
00099a c14a      	RJMP _0x97
00099b 2fe0      	MOV  R30,R16
00099c 30e0      	CPI  R30,0
00099d f459      	BRNE _0x9B
00099e 3235      	CPI  R19,37
00099f f411      	BRNE _0x9C
0009a0 e001      	LDI  R16,LOW(1)
0009a1 c006      	RJMP _0x9D
                 _0x9C:
0009a2 933a      	ST   -Y,R19
0009a3 85ed      	LDD  R30,Y+13
0009a4 85fe      	LDD  R31,Y+13+1
0009a5 93fa      	ST   -Y,R31
0009a6 93ea      	ST   -Y,R30
0009a7 dfd3      	RCALL __put_G4
                 _0x9D:
0009a8 c13b      	RJMP _0x9A
                 _0x9B:
0009a9 30e1      	CPI  R30,LOW(0x1)
0009aa f4c9      	BRNE _0x9E
0009ab 3235      	CPI  R19,37
0009ac f439      	BRNE _0x9F
0009ad 933a      	ST   -Y,R19
0009ae 85ed      	LDD  R30,Y+13
0009af 85fe      	LDD  R31,Y+13+1
0009b0 93fa      	ST   -Y,R31
0009b1 93ea      	ST   -Y,R30
0009b2 dfc8      	RCALL __put_G4
0009b3 c12f      	RJMP _0x115
                 _0x9F:
0009b4 e002      	LDI  R16,LOW(2)
0009b5 e050      	LDI  R21,LOW(0)
0009b6 e010      	LDI  R17,LOW(0)
0009b7 323d      	CPI  R19,45
0009b8 f411      	BRNE _0xA0
0009b9 e011      	LDI  R17,LOW(1)
0009ba c129      	RJMP _0x9A
                 _0xA0:
0009bb 323b      	CPI  R19,43
0009bc f411      	BRNE _0xA1
0009bd e25b      	LDI  R21,LOW(43)
0009be c125      	RJMP _0x9A
                 _0xA1:
0009bf 3230      	CPI  R19,32
0009c0 f411      	BRNE _0xA2
0009c1 e250      	LDI  R21,LOW(32)
0009c2 c121      	RJMP _0x9A
                 _0xA2:
0009c3 c002      	RJMP _0xA3
                 _0x9E:
0009c4 30e2      	CPI  R30,LOW(0x2)
0009c5 f439      	BRNE _0xA4
                 _0xA3:
0009c6 e040      	LDI  R20,LOW(0)
0009c7 e003      	LDI  R16,LOW(3)
0009c8 3330      	CPI  R19,48
0009c9 f411      	BRNE _0xA5
0009ca 6810      	ORI  R17,LOW(128)
0009cb c118      	RJMP _0x9A
                 _0xA5:
0009cc c003      	RJMP _0xA6
                 _0xA4:
0009cd 30e3      	CPI  R30,LOW(0x3)
0009ce f009      	BREQ PC+2
0009cf c114      	RJMP _0x9A
                 _0xA6:
0009d0 3330      	CPI  R19,48
0009d1 f010      	BRLO _0xA9
0009d2 333a      	CPI  R19,58
0009d3 f008      	BRLO _0xAA
                 _0xA9:
0009d4 c009      	RJMP _0xA8
                 _0xAA:
0009d5 2fa4      	MOV  R26,R20
0009d6 e0ea      	LDI  R30,LOW(10)
0009d7 9fea      	MUL  R30,R26
0009d8 01f0      	MOVW R30,R0
0009d9 2f4e      	MOV  R20,R30
0009da 2fe3      	MOV  R30,R19
0009db 53e0      	SUBI R30,LOW(48)
0009dc 0f4e      	ADD  R20,R30
0009dd c106      	RJMP _0x9A
                 _0xA8:
0009de 2fe3      	MOV  R30,R19
0009df 36e3      	CPI  R30,LOW(0x63)
0009e0 f471      	BRNE _0xAE
0009e1 85ae      	LDD  R26,Y+14
0009e2 85bf      	LDD  R27,Y+14+1
0009e3 9714      	SBIW R26,4
0009e4 87ae      	STD  Y+14,R26
0009e5 87bf      	STD  Y+14+1,R27
0009e6 9614      	ADIW R26,4
0009e7 91ec      	LD   R30,X
0009e8 93ea      	ST   -Y,R30
0009e9 85ed      	LDD  R30,Y+13
0009ea 85fe      	LDD  R31,Y+13+1
0009eb 93fa      	ST   -Y,R31
0009ec 93ea      	ST   -Y,R30
0009ed df8d      	RCALL __put_G4
0009ee c0f4      	RJMP _0xAF
                 _0xAE:
0009ef 37e3      	CPI  R30,LOW(0x73)
0009f0 f471      	BRNE _0xB1
0009f1 85ae      	LDD  R26,Y+14
0009f2 85bf      	LDD  R27,Y+14+1
0009f3 9714      	SBIW R26,4
0009f4 87ae      	STD  Y+14,R26
0009f5 87bf      	STD  Y+14+1,R27
0009f6 9614      	ADIW R26,4
0009f7 d30c      	RCALL __GETW1P
0009f8 83ee      	STD  Y+6,R30
0009f9 83ff      	STD  Y+6+1,R31
0009fa 93fa      	ST   -Y,R31
0009fb 93ea      	ST   -Y,R30
0009fc d20e      	RCALL _strlen
0009fd 2f0e      	MOV  R16,R30
0009fe c010      	RJMP _0xB2
                 _0xB1:
0009ff 37e0      	CPI  R30,LOW(0x70)
000a00 f491      	BRNE _0xB4
000a01 85ae      	LDD  R26,Y+14
000a02 85bf      	LDD  R27,Y+14+1
000a03 9714      	SBIW R26,4
000a04 87ae      	STD  Y+14,R26
000a05 87bf      	STD  Y+14+1,R27
000a06 9614      	ADIW R26,4
000a07 d2fc      	RCALL __GETW1P
000a08 83ee      	STD  Y+6,R30
000a09 83ff      	STD  Y+6+1,R31
000a0a 93fa      	ST   -Y,R31
000a0b 93ea      	ST   -Y,R30
000a0c d208      	RCALL _strlenf
000a0d 2f0e      	MOV  R16,R30
000a0e 6018      	ORI  R17,LOW(8)
                 _0xB2:
000a0f 6012      	ORI  R17,LOW(2)
000a10 771f      	ANDI R17,LOW(127)
000a11 e020      	LDI  R18,LOW(0)
000a12 c03c      	RJMP _0xB5
                 _0xB4:
000a13 36e4      	CPI  R30,LOW(0x64)
000a14 f011      	BREQ _0xB8
000a15 36e9      	CPI  R30,LOW(0x69)
000a16 f411      	BRNE _0xB9
                 _0xB8:
000a17 6014      	ORI  R17,LOW(4)
000a18 c002      	RJMP _0xBA
                 _0xB9:
000a19 37e5      	CPI  R30,LOW(0x75)
000a1a f431      	BRNE _0xBB
                 _0xBA:
000a1b e6e8      	LDI  R30,LOW(_tbl10_G4*2)
000a1c e0f0      	LDI  R31,HIGH(_tbl10_G4*2)
000a1d 83ee      	STD  Y+6,R30
000a1e 83ff      	STD  Y+6+1,R31
000a1f e005      	LDI  R16,LOW(5)
000a20 c00c      	RJMP _0xBC
                 _0xBB:
000a21 35e8      	CPI  R30,LOW(0x58)
000a22 f411      	BRNE _0xBE
000a23 6018      	ORI  R17,LOW(8)
000a24 c003      	RJMP _0xBF
                 _0xBE:
000a25 37e8      	CPI  R30,LOW(0x78)
000a26 f009      	BREQ PC+2
000a27 c0bb      	RJMP _0xF0
                 _0xBF:
000a28 e7e2      	LDI  R30,LOW(_tbl16_G4*2)
000a29 e0f0      	LDI  R31,HIGH(_tbl16_G4*2)
000a2a 83ee      	STD  Y+6,R30
000a2b 83ff      	STD  Y+6+1,R31
000a2c e004      	LDI  R16,LOW(4)
                 _0xBC:
000a2d ff12      	SBRS R17,2
000a2e c017      	RJMP _0xC1
000a2f 85ae      	LDD  R26,Y+14
000a30 85bf      	LDD  R27,Y+14+1
000a31 9714      	SBIW R26,4
000a32 87ae      	STD  Y+14,R26
000a33 87bf      	STD  Y+14+1,R27
000a34 9614      	ADIW R26,4
000a35 d2ce      	RCALL __GETW1P
000a36 87ea      	STD  Y+10,R30
000a37 87fb      	STD  Y+10+1,R31
000a38 85aa      	LDD  R26,Y+10
000a39 85bb      	LDD  R27,Y+10+1
000a3a 9710      	SBIW R26,0
000a3b f424      	BRGE _0xC2
000a3c d271      	RCALL __ANEGW1
000a3d 87ea      	STD  Y+10,R30
000a3e 87fb      	STD  Y+10+1,R31
000a3f e25d      	LDI  R21,LOW(45)
                 _0xC2:
000a40 3050      	CPI  R21,0
000a41 f011      	BREQ _0xC3
000a42 5f0f      	SUBI R16,-LOW(1)
000a43 c001      	RJMP _0xC4
                 _0xC3:
000a44 7f1b      	ANDI R17,LOW(251)
                 _0xC4:
000a45 c009      	RJMP _0xC5
                 _0xC1:
000a46 85ae      	LDD  R26,Y+14
000a47 85bf      	LDD  R27,Y+14+1
000a48 9714      	SBIW R26,4
000a49 87ae      	STD  Y+14,R26
000a4a 87bf      	STD  Y+14+1,R27
000a4b 9614      	ADIW R26,4
000a4c d2b7      	RCALL __GETW1P
000a4d 87ea      	STD  Y+10,R30
000a4e 87fb      	STD  Y+10+1,R31
                 _0xC5:
                 _0xB5:
000a4f fd10      	SBRC R17,0
000a50 c015      	RJMP _0xC6
                 _0xC7:
000a51 1704      	CP   R16,R20
000a52 f498      	BRSH _0xC9
000a53 ff17      	SBRS R17,7
000a54 c008      	RJMP _0xCA
000a55 ff12      	SBRS R17,2
000a56 c004      	RJMP _0xCB
000a57 7f1b      	ANDI R17,LOW(251)
000a58 2f35      	MOV  R19,R21
000a59 5001      	SUBI R16,LOW(1)
000a5a c001      	RJMP _0xCC
                 _0xCB:
000a5b e330      	LDI  R19,LOW(48)
                 _0xCC:
000a5c c001      	RJMP _0xCD
                 _0xCA:
000a5d e230      	LDI  R19,LOW(32)
                 _0xCD:
000a5e 933a      	ST   -Y,R19
000a5f 85ed      	LDD  R30,Y+13
000a60 85fe      	LDD  R31,Y+13+1
000a61 93fa      	ST   -Y,R31
000a62 93ea      	ST   -Y,R30
000a63 df17      	RCALL __put_G4
000a64 5041      	SUBI R20,LOW(1)
000a65 cfeb      	RJMP _0xC7
                 _0xC9:
                 _0xC6:
000a66 2f20      	MOV  R18,R16
000a67 ff11      	SBRS R17,1
000a68 c01d      	RJMP _0xCE
                 _0xCF:
000a69 3020      	CPI  R18,0
000a6a f0d1      	BREQ _0xD1
000a6b ff13      	SBRS R17,3
000a6c c008      	RJMP _0xD2
000a6d 81ee      	LDD  R30,Y+6
000a6e 81ff      	LDD  R31,Y+6+1
000a6f 9631      	ADIW R30,1
000a70 83ee      	STD  Y+6,R30
000a71 83ff      	STD  Y+6+1,R31
000a72 9731      	SBIW R30,1
000a73 91e4      	LPM  R30,Z
000a74 c005      	RJMP _0x116
                 _0xD2:
000a75 81ae      	LDD  R26,Y+6
000a76 81bf      	LDD  R27,Y+6+1
000a77 91ed      	LD   R30,X+
000a78 83ae      	STD  Y+6,R26
000a79 83bf      	STD  Y+6+1,R27
                 _0x116:
000a7a 93ea      	ST   -Y,R30
000a7b 85ed      	LDD  R30,Y+13
000a7c 85fe      	LDD  R31,Y+13+1
000a7d 93fa      	ST   -Y,R31
000a7e 93ea      	ST   -Y,R30
000a7f defb      	RCALL __put_G4
000a80 3040      	CPI  R20,0
000a81 f009      	BREQ _0xD4
000a82 5041      	SUBI R20,LOW(1)
                 _0xD4:
000a83 5021      	SUBI R18,LOW(1)
000a84 cfe4      	RJMP _0xCF
                 _0xD1:
000a85 c050      	RJMP _0xD5
                 _0xCE:
                 _0xD7:
000a86 e330      	LDI  R19,LOW(48)
000a87 81ee      	LDD  R30,Y+6
000a88 81ff      	LDD  R31,Y+6+1
000a89 9632      	ADIW R30,2
000a8a 83ee      	STD  Y+6,R30
000a8b 83ff      	STD  Y+6+1,R31
000a8c 9732      	SBIW R30,2
000a8d d27a      	RCALL __GETW1PF
000a8e 87e8      	STD  Y+8,R30
000a8f 87f9      	STD  Y+8+1,R31
                 _0xD9:
000a90 85e8      	LDD  R30,Y+8
000a91 85f9      	LDD  R31,Y+8+1
000a92 85aa      	LDD  R26,Y+10
000a93 85bb      	LDD  R27,Y+10+1
000a94 17ae      	CP   R26,R30
000a95 07bf      	CPC  R27,R31
000a96 f050      	BRLO _0xDB
000a97 5f3f      	SUBI R19,-LOW(1)
000a98 85a8      	LDD  R26,Y+8
000a99 85b9      	LDD  R27,Y+8+1
000a9a 85ea      	LDD  R30,Y+10
000a9b 85fb      	LDD  R31,Y+10+1
000a9c 1bea      	SUB  R30,R26
000a9d 0bfb      	SBC  R31,R27
000a9e 87ea      	STD  Y+10,R30
000a9f 87fb      	STD  Y+10+1,R31
000aa0 cfef      	RJMP _0xD9
                 _0xDB:
000aa1 333a      	CPI  R19,58
000aa2 f028      	BRLO _0xDC
000aa3 ff13      	SBRS R17,3
000aa4 c002      	RJMP _0xDD
000aa5 5f39      	SUBI R19,-LOW(7)
000aa6 c001      	RJMP _0xDE
                 _0xDD:
000aa7 5d39      	SUBI R19,-LOW(39)
                 _0xDE:
                 _0xDC:
000aa8 fd14      	SBRC R17,4
000aa9 c01d      	RJMP _0xE0
000aaa 3331      	CPI  R19,49
000aab f420      	BRSH _0xE2
000aac 85a8      	LDD  R26,Y+8
000aad 85b9      	LDD  R27,Y+8+1
000aae 9711      	SBIW R26,1
000aaf f409      	BRNE _0xE1
                 _0xE2:
000ab0 c009      	RJMP _0x117
                 _0xE1:
000ab1 1742      	CP   R20,R18
000ab2 f010      	BRLO _0xE6
000ab3 ff10      	SBRS R17,0
000ab4 c001      	RJMP _0xE7
                 _0xE6:
000ab5 c01a      	RJMP _0xE5
                 _0xE7:
000ab6 e230      	LDI  R19,LOW(32)
000ab7 ff17      	SBRS R17,7
000ab8 c00e      	RJMP _0xE8
000ab9 e330      	LDI  R19,LOW(48)
                 _0x117:
000aba 6110      	ORI  R17,LOW(16)
000abb ff12      	SBRS R17,2
000abc c00a      	RJMP _0xE9
000abd 7f1b      	ANDI R17,LOW(251)
000abe 935a      	ST   -Y,R21
000abf 85ed      	LDD  R30,Y+13
000ac0 85fe      	LDD  R31,Y+13+1
000ac1 93fa      	ST   -Y,R31
000ac2 93ea      	ST   -Y,R30
000ac3 deb7      	RCALL __put_G4
000ac4 3040      	CPI  R20,0
000ac5 f009      	BREQ _0xEA
000ac6 5041      	SUBI R20,LOW(1)
                 _0xEA:
                 _0xE9:
                 _0xE8:
                 _0xE0:
000ac7 933a      	ST   -Y,R19
000ac8 85ed      	LDD  R30,Y+13
000ac9 85fe      	LDD  R31,Y+13+1
000aca 93fa      	ST   -Y,R31
000acb 93ea      	ST   -Y,R30
000acc deae      	RCALL __put_G4
000acd 3040      	CPI  R20,0
000ace f009      	BREQ _0xEB
000acf 5041      	SUBI R20,LOW(1)
                 _0xEB:
                 _0xE5:
000ad0 5021      	SUBI R18,LOW(1)
000ad1 85a8      	LDD  R26,Y+8
000ad2 85b9      	LDD  R27,Y+8+1
000ad3 9712      	SBIW R26,2
000ad4 f008      	BRLO _0xD8
000ad5 cfb0      	RJMP _0xD7
                 _0xD8:
                 _0xD5:
000ad6 ff10      	SBRS R17,0
000ad7 c00b      	RJMP _0xEC
                 _0xED:
000ad8 3040      	CPI  R20,0
000ad9 f049      	BREQ _0xEF
000ada 5041      	SUBI R20,LOW(1)
000adb e2e0      	LDI  R30,LOW(32)
000adc 93ea      	ST   -Y,R30
000add 85ed      	LDD  R30,Y+13
000ade 85fe      	LDD  R31,Y+13+1
000adf 93fa      	ST   -Y,R31
000ae0 93ea      	ST   -Y,R30
000ae1 de99      	RCALL __put_G4
000ae2 cff5      	RJMP _0xED
                 _0xEF:
                 _0xEC:
                 _0xF0:
                 _0xAF:
                 _0x115:
000ae3 e000      	LDI  R16,LOW(0)
                 _0x9A:
000ae4 ceab      	RJMP _0x95
                 _0x97:
000ae5 d232      	RCALL __LOADLOCR6
000ae6 9662      	ADIW R28,18
000ae7 9508      	RET
                 _sprintf:
000ae8 92ff      	PUSH R15
000ae9 2ef8      	MOV  R15,R24
000aea 9722      	SBIW R28,2
000aeb d229      	RCALL __SAVELOCR2
000aec 01de      	MOVW R26,R28
000aed d1bc      	RCALL __ADDW2R15
000aee 018d      	MOVW R16,R26
000aef 01de      	MOVW R26,R28
000af0 9616      	ADIW R26,6
000af1 d1b8      	RCALL __ADDW2R15
000af2 d211      	RCALL __GETW1P
000af3 83ea      	STD  Y+2,R30
000af4 83fb      	STD  Y+2+1,R31
000af5 01de      	MOVW R26,R28
000af6 9614      	ADIW R26,4
000af7 d1b2      	RCALL __ADDW2R15
000af8 d20b      	RCALL __GETW1P
000af9 93fa      	ST   -Y,R31
000afa 93ea      	ST   -Y,R30
000afb 931a      	ST   -Y,R17
000afc 930a      	ST   -Y,R16
000afd 01fe      	MOVW R30,R28
000afe 9636      	ADIW R30,6
000aff 93fa      	ST   -Y,R31
000b00 93ea      	ST   -Y,R30
000b01 de8b      	RCALL __print_G4
000b02 81aa      	LDD  R26,Y+2
000b03 81bb      	LDD  R27,Y+2+1
000b04 e0e0      	LDI  R30,LOW(0)
000b05 93ec      	ST   X,R30
000b06 c017      	RJMP _0x108
                 _printf:
000b07 92ff      	PUSH R15
000b08 2ef8      	MOV  R15,R24
000b09 9722      	SBIW R28,2
000b0a d20a      	RCALL __SAVELOCR2
000b0b 01de      	MOVW R26,R28
000b0c d19d      	RCALL __ADDW2R15
000b0d 018d      	MOVW R16,R26
000b0e e0e0      	LDI  R30,0
000b0f 83ea      	STD  Y+2,R30
000b10 83eb      	STD  Y+2+1,R30
000b11 01de      	MOVW R26,R28
000b12 9614      	ADIW R26,4
000b13 d196      	RCALL __ADDW2R15
000b14 d1ef      	RCALL __GETW1P
000b15 93fa      	ST   -Y,R31
000b16 93ea      	ST   -Y,R30
000b17 931a      	ST   -Y,R17
000b18 930a      	ST   -Y,R16
000b19 01fe      	MOVW R30,R28
000b1a 9636      	ADIW R30,6
000b1b 93fa      	ST   -Y,R31
000b1c 93ea      	ST   -Y,R30
000b1d de6f      	RCALL __print_G4
                 _0x108:
000b1e d1fd      	RCALL __LOADLOCR2
000b1f 9624      	ADIW R28,4
000b20 90ff      	POP  R15
000b21 9508      	RET
                 
                 	.DSEG
                 ___ds18b20_scratch_pad:
00014e           	.BYTE 0x9
                 
                 	.CSEG
                 _rtc_init:
000b22 81ea      	LDD  R30,Y+2
000b23 70e3      	ANDI R30,LOW(0x3)
000b24 83ea      	STD  Y+2,R30
000b25 81e9      	LDD  R30,Y+1
000b26 30e0      	CPI  R30,0
000b27 f019      	BREQ _0x104
000b28 81ea      	LDD  R30,Y+2
000b29 61e0      	ORI  R30,0x10
000b2a 83ea      	STD  Y+2,R30
                 _0x104:
000b2b 81e8      	LD   R30,Y
000b2c 30e0      	CPI  R30,0
000b2d f019      	BREQ _0x105
000b2e 81ea      	LDD  R30,Y+2
000b2f 68e0      	ORI  R30,0x80
000b30 83ea      	STD  Y+2,R30
                 _0x105:
000b31 d08c      	RCALL _i2c_start
000b32 ede0      	LDI  R30,LOW(208)
000b33 93ea      	ST   -Y,R30
000b34 d0bd      	RCALL _i2c_write
000b35 e0e7      	LDI  R30,LOW(7)
000b36 93ea      	ST   -Y,R30
000b37 d0ba      	RCALL _i2c_write
000b38 81ea      	LDD  R30,Y+2
000b39 93ea      	ST   -Y,R30
000b3a d0b7      	RCALL _i2c_write
000b3b d091      	RCALL _i2c_stop
000b3c c07a      	RJMP _0x106
                 _rtc_get_time:
000b3d d080      	RCALL _i2c_start
000b3e ede0      	LDI  R30,LOW(208)
000b3f 93ea      	ST   -Y,R30
000b40 d0b1      	RCALL _i2c_write
000b41 e0e0      	LDI  R30,LOW(0)
000b42 93ea      	ST   -Y,R30
000b43 d0ae      	RCALL _i2c_write
000b44 d079      	RCALL _i2c_start
000b45 ede1      	LDI  R30,LOW(209)
000b46 93ea      	ST   -Y,R30
000b47 d0aa      	RCALL _i2c_write
000b48 e0e1      	LDI  R30,LOW(1)
000b49 93ea      	ST   -Y,R30
000b4a d08c      	RCALL _i2c_read
000b4b 93ea      	ST   -Y,R30
000b4c d0df      	RCALL _bcd2bin
000b4d 81a8      	LD   R26,Y
000b4e 81b9      	LDD  R27,Y+1
000b4f 93ec      	ST   X,R30
000b50 e0e1      	LDI  R30,LOW(1)
000b51 93ea      	ST   -Y,R30
000b52 d084      	RCALL _i2c_read
000b53 93ea      	ST   -Y,R30
000b54 d0d7      	RCALL _bcd2bin
000b55 81aa      	LDD  R26,Y+2
000b56 81bb      	LDD  R27,Y+2+1
000b57 93ec      	ST   X,R30
000b58 e0e0      	LDI  R30,LOW(0)
000b59 93ea      	ST   -Y,R30
000b5a d07c      	RCALL _i2c_read
000b5b 93ea      	ST   -Y,R30
000b5c d0cf      	RCALL _bcd2bin
000b5d 81ac      	LDD  R26,Y+4
000b5e 81bd      	LDD  R27,Y+4+1
000b5f 93ec      	ST   X,R30
000b60 d06c      	RCALL _i2c_stop
000b61 c03c      	RJMP _0x107
                 _rtc_set_time:
000b62 d05b      	RCALL _i2c_start
000b63 ede0      	LDI  R30,LOW(208)
000b64 93ea      	ST   -Y,R30
000b65 d08c      	RCALL _i2c_write
000b66 e0e0      	LDI  R30,LOW(0)
000b67 93ea      	ST   -Y,R30
000b68 d089      	RCALL _i2c_write
000b69 81e8      	LD   R30,Y
000b6a 93ea      	ST   -Y,R30
000b6b d0cc      	RCALL _bin2bcd
000b6c 93ea      	ST   -Y,R30
000b6d d084      	RCALL _i2c_write
000b6e 81e9      	LDD  R30,Y+1
000b6f 93ea      	ST   -Y,R30
000b70 d0c7      	RCALL _bin2bcd
000b71 93ea      	ST   -Y,R30
000b72 d07f      	RCALL _i2c_write
000b73 81ea      	LDD  R30,Y+2
000b74 93ea      	ST   -Y,R30
000b75 d0c2      	RCALL _bin2bcd
000b76 93ea      	ST   -Y,R30
000b77 d07a      	RCALL _i2c_write
000b78 d054      	RCALL _i2c_stop
000b79 c03d      	RJMP _0x106
                 _rtc_get_date:
000b7a d043      	RCALL _i2c_start
000b7b ede0      	LDI  R30,LOW(208)
000b7c 93ea      	ST   -Y,R30
000b7d d074      	RCALL _i2c_write
000b7e e0e4      	LDI  R30,LOW(4)
000b7f 93ea      	ST   -Y,R30
000b80 d071      	RCALL _i2c_write
000b81 d03c      	RCALL _i2c_start
000b82 ede1      	LDI  R30,LOW(209)
000b83 93ea      	ST   -Y,R30
000b84 d06d      	RCALL _i2c_write
000b85 e0e1      	LDI  R30,LOW(1)
000b86 93ea      	ST   -Y,R30
000b87 d04f      	RCALL _i2c_read
000b88 93ea      	ST   -Y,R30
000b89 d0a2      	RCALL _bcd2bin
000b8a 81ac      	LDD  R26,Y+4
000b8b 81bd      	LDD  R27,Y+4+1
000b8c 93ec      	ST   X,R30
000b8d e0e1      	LDI  R30,LOW(1)
000b8e 93ea      	ST   -Y,R30
000b8f d047      	RCALL _i2c_read
000b90 93ea      	ST   -Y,R30
000b91 d09a      	RCALL _bcd2bin
000b92 81aa      	LDD  R26,Y+2
000b93 81bb      	LDD  R27,Y+2+1
000b94 93ec      	ST   X,R30
000b95 e0e0      	LDI  R30,LOW(0)
000b96 93ea      	ST   -Y,R30
000b97 d03f      	RCALL _i2c_read
000b98 93ea      	ST   -Y,R30
000b99 d092      	RCALL _bcd2bin
000b9a 81a8      	LD   R26,Y
000b9b 81b9      	LDD  R27,Y+1
000b9c 93ec      	ST   X,R30
000b9d d02f      	RCALL _i2c_stop
                 _0x107:
000b9e 9626      	ADIW R28,6
000b9f 9508      	RET
                 _rtc_set_date:
000ba0 d01d      	RCALL _i2c_start
000ba1 ede0      	LDI  R30,LOW(208)
000ba2 93ea      	ST   -Y,R30
000ba3 d04e      	RCALL _i2c_write
000ba4 e0e4      	LDI  R30,LOW(4)
000ba5 93ea      	ST   -Y,R30
000ba6 d04b      	RCALL _i2c_write
000ba7 81ea      	LDD  R30,Y+2
000ba8 93ea      	ST   -Y,R30
000ba9 d08e      	RCALL _bin2bcd
000baa 93ea      	ST   -Y,R30
000bab d046      	RCALL _i2c_write
000bac 81e9      	LDD  R30,Y+1
000bad 93ea      	ST   -Y,R30
000bae d089      	RCALL _bin2bcd
000baf 93ea      	ST   -Y,R30
000bb0 d041      	RCALL _i2c_write
000bb1 81e8      	LD   R30,Y
000bb2 93ea      	ST   -Y,R30
000bb3 d084      	RCALL _bin2bcd
000bb4 93ea      	ST   -Y,R30
000bb5 d03c      	RCALL _i2c_write
000bb6 d016      	RCALL _i2c_stop
                 _0x106:
000bb7 9623      	ADIW R28,3
000bb8 9508      	RET
                 
                 	.equ __i2c_dir=__i2c_port-1
                 	.equ __i2c_pin=__i2c_port-2
                 _i2c_init:
000bb9 9892      	cbi  __i2c_port,__scl_bit
000bba 9893      	cbi  __i2c_port,__sda_bit
000bbb 9a8a      	sbi  __i2c_dir,__scl_bit
000bbc 988b      	cbi  __i2c_dir,__sda_bit
000bbd c015      	rjmp __i2c_delay2
                 _i2c_start:
000bbe 988b      	cbi  __i2c_dir,__sda_bit
000bbf 988a      	cbi  __i2c_dir,__scl_bit
000bc0 27ee      	clr  r30
000bc1 0000      	nop
000bc2 9b83      	sbis __i2c_pin,__sda_bit
000bc3 9508      	ret
000bc4 9b82      	sbis __i2c_pin,__scl_bit
000bc5 9508      	ret
000bc6 d004      	rcall __i2c_delay1
000bc7 9a8b      	sbi  __i2c_dir,__sda_bit
000bc8 d002      	rcall __i2c_delay1
000bc9 9a8a      	sbi  __i2c_dir,__scl_bit
000bca e0e1      	ldi  r30,1
                 __i2c_delay1:
000bcb e16b      	ldi  r22,27
000bcc c007      	rjmp __i2c_delay2l
                 _i2c_stop:
000bcd 9a8b      	sbi  __i2c_dir,__sda_bit
000bce 9a8a      	sbi  __i2c_dir,__scl_bit
000bcf d003      	rcall __i2c_delay2
000bd0 988a      	cbi  __i2c_dir,__scl_bit
000bd1 dff9      	rcall __i2c_delay1
000bd2 988b      	cbi  __i2c_dir,__sda_bit
                 __i2c_delay2:
000bd3 e365      	ldi  r22,53
                 __i2c_delay2l:
000bd4 956a      	dec  r22
000bd5 f7f1      	brne __i2c_delay2l
000bd6 9508      	ret
                 _i2c_read:
000bd7 e078      	ldi  r23,8
                 __i2c_read0:
000bd8 988a      	cbi  __i2c_dir,__scl_bit
000bd9 dff1      	rcall __i2c_delay1
                 __i2c_read3:
000bda 9b82      	sbis __i2c_pin,__scl_bit
000bdb cffe      	rjmp __i2c_read3
000bdc dfee      	rcall __i2c_delay1
000bdd 9488      	clc
000bde 9983      	sbic __i2c_pin,__sda_bit
000bdf 9408      	sec
000be0 9a8a      	sbi  __i2c_dir,__scl_bit
000be1 dff1      	rcall __i2c_delay2
000be2 1fee      	rol  r30
000be3 957a      	dec  r23
000be4 f799      	brne __i2c_read0
000be5 9179      	ld   r23,y+
000be6 2377      	tst  r23
000be7 f411      	brne __i2c_read1
000be8 988b      	cbi  __i2c_dir,__sda_bit
000be9 c001      	rjmp __i2c_read2
                 __i2c_read1:
000bea 9a8b      	sbi  __i2c_dir,__sda_bit
                 __i2c_read2:
000beb dfdf      	rcall __i2c_delay1
000bec 988a      	cbi  __i2c_dir,__scl_bit
000bed dfe5      	rcall __i2c_delay2
000bee 9a8a      	sbi  __i2c_dir,__scl_bit
000bef dfdb      	rcall __i2c_delay1
000bf0 988b      	cbi  __i2c_dir,__sda_bit
000bf1 cfd9      	rjmp __i2c_delay1
                 
                 _i2c_write:
000bf2 91e9      	ld   r30,y+
000bf3 e078      	ldi  r23,8
                 __i2c_write0:
000bf4 0fee      	lsl  r30
000bf5 f410      	brcc __i2c_write1
000bf6 988b      	cbi  __i2c_dir,__sda_bit
000bf7 c001      	rjmp __i2c_write2
                 __i2c_write1:
000bf8 9a8b      	sbi  __i2c_dir,__sda_bit
                 __i2c_write2:
000bf9 dfd9      	rcall __i2c_delay2
000bfa 988a      	cbi  __i2c_dir,__scl_bit
000bfb dfcf      	rcall __i2c_delay1
                 __i2c_write3:
000bfc 9b82      	sbis __i2c_pin,__scl_bit
000bfd cffe      	rjmp __i2c_write3
000bfe dfcc      	rcall __i2c_delay1
000bff 9a8a      	sbi  __i2c_dir,__scl_bit
000c00 957a      	dec  r23
000c01 f791      	brne __i2c_write0
000c02 988b      	cbi  __i2c_dir,__sda_bit
000c03 dfc7      	rcall __i2c_delay1
000c04 988a      	cbi  __i2c_dir,__scl_bit
000c05 dfcd      	rcall __i2c_delay2
000c06 e0e1      	ldi  r30,1
000c07 9983      	sbic __i2c_pin,__sda_bit
000c08 27ee      	clr  r30
000c09 9a8a      	sbi  __i2c_dir,__scl_bit
000c0a 9508      	ret
                 
                 _strlen:
000c0b 91a9      	ld   r26,y+
000c0c 91b9      	ld   r27,y+
000c0d 27ee      	clr  r30
000c0e 27ff      	clr  r31
                 __strlen0:
000c0f 916d      	ld   r22,x+
000c10 2366      	tst  r22
000c11 f011      	breq __strlen1
000c12 9631      	adiw r30,1
000c13 cffb      	rjmp __strlen0
                 __strlen1:
000c14 9508      	ret
                 
                 _strlenf:
000c15 27aa      	clr  r26
000c16 27bb      	clr  r27
000c17 91e9      	ld   r30,y+
000c18 91f9      	ld   r31,y+
                 __strlenf0:
000c19 9005      	lpm  r0,z+
000c1a 2000      	tst  r0
000c1b f011      	breq __strlenf1
000c1c 9611      	adiw r26,1
000c1d cffb      	rjmp __strlenf0
                 __strlenf1:
000c1e 01fd      	movw r30,r26
000c1f 9508      	ret
                 
                 _delay_ms:
000c20 91e9      	ld   r30,y+
000c21 91f9      	ld   r31,y+
000c22 9630      	adiw r30,0
000c23 f039      	breq __delay_ms1
                 __delay_ms0:
000c24 ea80
000c25 e09f
000c26 9701
000c27 f7f1      	__DELAY_USW 0xFA0
000c28 95a8      	wdr
000c29 9731      	sbiw r30,1
000c2a f7c9      	brne __delay_ms0
                 __delay_ms1:
000c2b 9508      	ret
                 
                 _bcd2bin:
000c2c 81e8      	ld   r30,y
000c2d 95e2      	swap r30
000c2e 70ef      	andi r30,0xf
000c2f 2fae      	mov  r26,r30
000c30 0faa      	lsl  r26
000c31 0faa      	lsl  r26
000c32 0fea      	add  r30,r26
000c33 0fee      	lsl  r30
000c34 91a9      	ld   r26,y+
000c35 70af      	andi r26,0xf
000c36 0fea      	add  r30,r26
000c37 9508      	ret
                 
                 _bin2bcd:
000c38 91a9      	ld   r26,y+
000c39 27ee      	clr  r30
                 __bin2bcd0:
000c3a 50aa      	subi r26,10
000c3b f012      	brmi __bin2bcd1
000c3c 5fe0      	subi r30,-16
000c3d cffc      	rjmp __bin2bcd0
                 __bin2bcd1:
000c3e 5fa6      	subi r26,-10
000c3f 0fea      	add  r30,r26
000c40 9508      	ret
                 
                 _w1_init:
000c41 27ee      	clr  r30
000c42 9895      	cbi  __w1_port,__w1_bit
000c43 9a8d      	sbi  __w1_port-1,__w1_bit
000c44 e880
000c45 e097
000c46 9701
000c47 f7f1      	__DELAY_USW 0x780
000c48 988d      	cbi  __w1_port-1,__w1_bit
000c49 e48b
000c4a 958a
000c4b f7f1      	__DELAY_USB 0x4B
000c4c 9b85      	sbis __w1_port-2,__w1_bit
000c4d 9508      	ret
000c4e e380
000c4f e091
000c50 9701
000c51 f7f1      	__DELAY_USW 0x130
000c52 9b85      	sbis __w1_port-2,__w1_bit
000c53 95e3      	inc  r30
000c54 e188
000c55 e096
000c56 9701
000c57 f7f1      	__DELAY_USW 0x618
000c58 9508      	ret
                 
                 __w1_read_bit:
000c59 9a8d      	sbi  __w1_port-1,__w1_bit
000c5a e08b
000c5b 958a
000c5c f7f1      	__DELAY_USB 0xB
000c5d 988d      	cbi  __w1_port-1,__w1_bit
000c5e e38b
000c5f 958a
000c60 f7f1      	__DELAY_USB 0x3B
000c61 9488      	clc
000c62 9985      	sbic __w1_port-2,__w1_bit
000c63 9408      	sec
000c64 95e7      	ror  r30
000c65 e480
000c66 e091
000c67 9701
000c68 f7f1      	__DELAY_USW 0x140
000c69 9508      	ret
                 
                 __w1_write_bit:
000c6a 94e8      	clt
000c6b 9a8d      	sbi  __w1_port-1,__w1_bit
000c6c e08b
000c6d 958a
000c6e f7f1      	__DELAY_USB 0xB
000c6f fd70      	sbrc r23,0
000c70 988d      	cbi  __w1_port-1,__w1_bit
000c71 e485
000c72 958a
000c73 f7f1      	__DELAY_USB 0x45
000c74 9985      	sbic __w1_port-2,__w1_bit
000c75 c003      	rjmp __w1_write_bit0
000c76 ff70      	sbrs r23,0
000c77 c003      	rjmp __w1_write_bit1
000c78 9508      	ret
                 __w1_write_bit0:
000c79 ff70      	sbrs r23,0
000c7a 9508      	ret
                 __w1_write_bit1:
000c7b e28c
000c7c e091
000c7d 9701
000c7e f7f1      	__DELAY_USW 0x12C
000c7f 988d      	cbi  __w1_port-1,__w1_bit
000c80 e18b
000c81 958a
000c82 f7f1      	__DELAY_USB 0x1B
000c83 9468      	set
000c84 9508      	ret
                 
                 _w1_read:
000c85 e068      	ldi  r22,8
                 	__w1_read0:
000c86 dfd2      	rcall __w1_read_bit
000c87 956a      	dec  r22
000c88 f7e9      	brne __w1_read0
000c89 9508      	ret
                 
                 _w1_write:
000c8a e068      	ldi  r22,8
000c8b 9179      	ld   r23,y+
000c8c 27ee      	clr  r30
                 __w1_write0:
000c8d dfdc      	rcall __w1_write_bit
000c8e f426      	brtc __w1_write1
000c8f 9577      	ror  r23
000c90 956a      	dec  r22
000c91 f7d9      	brne __w1_write0
000c92 95e3      	inc  r30
                 __w1_write1:
000c93 9508      	ret
                 
                 _w1_dow_crc8:
000c94 27ee      	clr  r30
000c95 8188      	ld   r24,y
000c96 2388      	tst  r24
000c97 f081      	breq __w1_dow_crc83
000c98 e168      	ldi  r22,0x18
000c99 81a9      	ldd  r26,y+1
000c9a 81ba      	ldd  r27,y+2
                 __w1_dow_crc80:
000c9b e098      	ldi  r25,8
000c9c 91fd      	ld   r31,x+
                 __w1_dow_crc81:
000c9d 2f7f      	mov  r23,r31
000c9e 277e      	eor  r23,r30
000c9f 9577      	ror  r23
000ca0 f408      	brcc __w1_dow_crc82
000ca1 27e6      	eor  r30,r22
                 __w1_dow_crc82:
000ca2 95e7      	ror  r30
000ca3 95f6      	lsr  r31
000ca4 959a      	dec  r25
000ca5 f7b9      	brne __w1_dow_crc81
000ca6 958a      	dec  r24
000ca7 f799      	brne __w1_dow_crc80
                 __w1_dow_crc83:
000ca8 9623      	adiw r28,3
000ca9 9508      	ret
                 
                 __ADDW2R15:
000caa 2400      	CLR  R0
000cab 0daf      	ADD  R26,R15
000cac 1db0      	ADC  R27,R0
000cad 9508      	RET
                 
                 __ANEGW1:
000cae 95e0      	COM  R30
000caf 95f0      	COM  R31
000cb0 9631      	ADIW R30,1
000cb1 9508      	RET
                 
                 __LSRB12:
000cb2 23ee      	TST  R30
000cb3 2e0e      	MOV  R0,R30
000cb4 2fea      	MOV  R30,R26
000cb5 f019      	BREQ __LSRB12R
                 __LSRB12L:
000cb6 95e6      	LSR  R30
000cb7 940a      	DEC  R0
000cb8 f7e9      	BRNE __LSRB12L
                 __LSRB12R:
000cb9 9508      	RET
                 
                 __LSLW4:
000cba 0fee      	LSL  R30
000cbb 1fff      	ROL  R31
                 __LSLW3:
000cbc 0fee      	LSL  R30
000cbd 1fff      	ROL  R31
                 __LSLW2:
000cbe 0fee      	LSL  R30
000cbf 1fff      	ROL  R31
000cc0 0fee      	LSL  R30
000cc1 1fff      	ROL  R31
000cc2 9508      	RET
                 
                 __CWD1:
000cc3 2f6f      	MOV  R22,R31
000cc4 0f66      	ADD  R22,R22
000cc5 0b66      	SBC  R22,R22
000cc6 2f76      	MOV  R23,R22
000cc7 9508      	RET
                 
                 __MULW12U:
000cc8 9ffa      	MUL  R31,R26
000cc9 2df0      	MOV  R31,R0
000cca 9feb      	MUL  R30,R27
000ccb 0df0      	ADD  R31,R0
000ccc 9fea      	MUL  R30,R26
000ccd 2de0      	MOV  R30,R0
000cce 0df1      	ADD  R31,R1
000ccf 9508      	RET
                 
                 __MULW12:
000cd0 d025      	RCALL __CHKSIGNW
000cd1 dff6      	RCALL __MULW12U
000cd2 f40e      	BRTC __MULW121
000cd3 dfda      	RCALL __ANEGW1
                 __MULW121:
000cd4 9508      	RET
                 
                 __DIVW21U:
000cd5 2400      	CLR  R0
000cd6 2411      	CLR  R1
000cd7 e190      	LDI  R25,16
                 __DIVW21U1:
000cd8 0faa      	LSL  R26
000cd9 1fbb      	ROL  R27
000cda 1c00      	ROL  R0
000cdb 1c11      	ROL  R1
000cdc 1a0e      	SUB  R0,R30
000cdd 0a1f      	SBC  R1,R31
000cde f418      	BRCC __DIVW21U2
000cdf 0e0e      	ADD  R0,R30
000ce0 1e1f      	ADC  R1,R31
000ce1 c001      	RJMP __DIVW21U3
                 __DIVW21U2:
000ce2 60a1      	SBR  R26,1
                 __DIVW21U3:
000ce3 959a      	DEC  R25
000ce4 f799      	BRNE __DIVW21U1
000ce5 01fd      	MOVW R30,R26
000ce6 01d0      	MOVW R26,R0
000ce7 9508      	RET
                 
                 __MODW21:
000ce8 94e8      	CLT
000ce9 ffb7      	SBRS R27,7
000cea c004      	RJMP __MODW211
000ceb 95a0      	COM  R26
000cec 95b0      	COM  R27
000ced 9611      	ADIW R26,1
000cee 9468      	SET
                 __MODW211:
000cef fdf7      	SBRC R31,7
000cf0 dfbd      	RCALL __ANEGW1
000cf1 dfe3      	RCALL __DIVW21U
000cf2 01fd      	MOVW R30,R26
000cf3 f40e      	BRTC __MODW212
000cf4 dfb9      	RCALL __ANEGW1
                 __MODW212:
000cf5 9508      	RET
                 
                 __CHKSIGNW:
000cf6 94e8      	CLT
000cf7 fff7      	SBRS R31,7
000cf8 c002      	RJMP __CHKSW1
000cf9 dfb4      	RCALL __ANEGW1
000cfa 9468      	SET
                 __CHKSW1:
000cfb ffb7      	SBRS R27,7
000cfc c006      	RJMP __CHKSW2
000cfd 95a0      	COM  R26
000cfe 95b0      	COM  R27
000cff 9611      	ADIW R26,1
000d00 f800      	BLD  R0,0
000d01 9403      	INC  R0
000d02 fa00      	BST  R0,0
                 __CHKSW2:
000d03 9508      	RET
                 
                 __GETW1P:
000d04 91ed      	LD   R30,X+
000d05 91fc      	LD   R31,X
000d06 9711      	SBIW R26,1
000d07 9508      	RET
                 
                 __GETW1PF:
000d08 9005      	LPM  R0,Z+
000d09 91f4      	LPM  R31,Z
000d0a 2de0      	MOV  R30,R0
000d0b 9508      	RET
                 
                 __PUTPARD1:
000d0c 937a      	ST   -Y,R23
000d0d 936a      	ST   -Y,R22
000d0e 93fa      	ST   -Y,R31
000d0f 93ea      	ST   -Y,R30
000d10 9508      	RET
                 
                 __SAVELOCR6:
000d11 935a      	ST   -Y,R21
                 __SAVELOCR5:
000d12 934a      	ST   -Y,R20
                 __SAVELOCR4:
000d13 933a      	ST   -Y,R19
                 __SAVELOCR3:
000d14 932a      	ST   -Y,R18
                 __SAVELOCR2:
000d15 931a      	ST   -Y,R17
000d16 930a      	ST   -Y,R16
000d17 9508      	RET
                 
                 __LOADLOCR6:
000d18 815d      	LDD  R21,Y+5
                 __LOADLOCR5:
000d19 814c      	LDD  R20,Y+4
                 __LOADLOCR4:
000d1a 813b      	LDD  R19,Y+3
                 __LOADLOCR3:
000d1b 812a      	LDD  R18,Y+2
                 __LOADLOCR2:
000d1c 8119      	LDD  R17,Y+1
000d1d 8108      	LD   R16,Y
000d1e 9508      	RET
                 
                 __LOADLOCR2P:
000d1f 9109      	LD   R16,Y+
000d20 9119      	LD   R17,Y+
000d21 9508      	RET
                 
                 __INITLOCB:
                 __INITLOCW:
000d22 0fac      	ADD R26,R28
000d23 1fbd      	ADC R27,R29
                 __INITLOC0:
000d24 9005      	LPM  R0,Z+
000d25 920d      	ST   X+,R0
000d26 958a      	DEC  R24
000d27 f7e1      	BRNE __INITLOC0
000d28 9508      	RET
                 
                 ;END OF CODE MARKER
                 __END_OF_CODE:


RESOURCE USE INFORMATION
------------------------

Notice:
The register and instruction counts are symbol table hit counts,
and hence implicitly used resources are not counted, eg, the
'lpm' instruction without operands implicitly uses r0 and z,
none of which are counted.

x,y,z are separate entities in the symbol table and are
counted separately from r26..r31 here.

.dseg memory usage only counts static data declared with .byte

ATmega8515 register use summary:
r0 :  26 r1 :   6 r2 :   1 r3 :   0 r4 :   5 r5 :   3 r6 :   4 r7 :   2 
r8 :   6 r9 :   8 r10:  10 r11:   5 r12:   5 r13:   6 r14:   5 r15:   6 
r16: 118 r17:  81 r18:  60 r19:  71 r20:  47 r21:  31 r22:  51 r23:  47 
r24:  78 r25:  12 r26: 197 r27:  93 r28:  68 r29:   2 r30: 937 r31: 370 
x  :  33 y  : 629 z  :  21 
Registers used: 34 out of 35 (97.1%)

ATmega8515 instruction use summary:
adc   :  27 add   :  34 adiw  :  78 and   :   7 andi  :  24 asr   :   0 
bclr  :   0 bld   :   2 brbc  :   0 brbs  :   0 brcc  :   3 brcs  :   0 
break :   0 breq  :  32 brge  :   2 brhc  :   0 brhs  :   0 brid  :   0 
brie  :   0 brlo  :  26 brlt  :   6 brmi  :   1 brne  :  72 brpl  :   0 
brsh  :  14 brtc  :   3 brts  :   0 brvc  :   0 brvs  :   0 bset  :   0 
bst   :   2 cbi   :  50 cbr   :   0 clc   :   2 clh   :   0 cli   :   2 
cln   :   0 clr   : 124 cls   :   0 clt   :   3 clv   :   0 clz   :   0 
com   :   9 cp    :  16 cpc   :  22 cpi   :  81 cpse  :   0 dec   :  27 
eor   :   2 fmul  :   0 fmuls :   0 fmulsu:   0 icall :   0 ijmp  :   0 
in    :  17 inc   :   5 ld    :  55 ldd   : 206 ldi   : 448 lds   :  36 
lpm   :  13 lsl   :  12 lsr   :   2 mov   :  81 movw  :  44 mul   :   4 
muls  :   0 mulsu :   0 neg   :   0 nop   :   2 or    :   6 ori   :  10 
out   :  57 pop   :  13 push  :  14 rcall : 305 ret   :  66 reti  :   2 
rjmp  : 147 rol   :   8 ror   :   4 sbc   :  12 sbci  :  21 sbi   :  41 
sbic  :   4 sbis  :   8 sbiw  :  41 sbr   :   1 sbrc  :   4 sbrs  :  17 
sec   :   2 seh   :   0 sei   :   2 sen   :   0 ser   :   0 ses   :   0 
set   :   3 sev   :   0 sez   :   0 sleep :   0 spm   :   0 st    : 320 
std   :  89 sts   :  33 sub   :  11 subi  :  49 swap  :   1 tst   :   6 
wdr   :  11 
Instructions used: 71 out of 109 (65.1%)

ATmega8515 memory use summary [bytes]:
Segment   Begin    End      Code   Data   Used    Size   Use%
---------------------------------------------------------------
[.cseg] 0x000000 0x001a52   5946    792   6738    8192  82.3%
[.dseg] 0x000060 0x000157      0    147    147     512  28.7%
[.eseg] 0x000000 0x000000      0      0      0     512   0.0%

Assembly complete, 0 errors, 8 warnings
